ccollections
OrderedDict
p0
((lp1
(lp2
S'error'
p3
a(lp4
cnumpy.core.multiarray
_reconstruct
p5
(cnumpy
ndarray
p6
(I0
tp7
S'b'
p8
tp9
Rp10
(I1
(tcnumpy
dtype
p11
(S'f8'
p12
I0
I1
tp13
Rp14
(I3
S'<'
p15
NNNI-1
I-1
I0
tp16
bI00
S'\x00\x00\x00\xc06X\x9e@'
p17
tp18
bag5
(g6
(I0
tp19
g8
tp20
Rp21
(I1
(tg14
I00
S'\x00\x00\x00\x00\x00\x00\x00\x80'
p22
tp23
bag5
(g6
(I0
tp24
g8
tp25
Rp26
(I1
(tg14
I00
S'\x00\x00\x00\x00\xcc\xf9\x94@'
p27
tp28
bag5
(g6
(I0
tp29
g8
tp30
Rp31
(I1
(tg14
I00
S'\x00\x00\x00\x00\x00\x00\x00\x80'
p32
tp33
bag5
(g6
(I0
tp34
g8
tp35
Rp36
(I1
(tg14
I00
S'\x00\x00\x00\xc0\xa2\xcff@'
p37
tp38
bag5
(g6
(I0
tp39
g8
tp40
Rp41
(I1
(tg14
I00
S'\x00\x00\x00\x00\x00\x00\x00\x80'
p42
tp43
bag5
(g6
(I0
tp44
g8
tp45
Rp46
(I1
(tg14
I00
S'\x00\x00\x00\x00j\x9b\xeb='
p47
tp48
bag5
(g6
(I0
tp49
g8
tp50
Rp51
(I1
(tg14
I00
S'\x00\x00\x00 \xa1yE@'
p52
tp53
bag5
(g6
(I0
tp54
g8
tp55
Rp56
(I1
(tg14
I00
S'\x00\x00\x00\x00\x00\x00\x00\x80'
p57
tp58
bag5
(g6
(I0
tp59
g8
tp60
Rp61
(I1
(tg14
I00
S'\x00\x00\x00@\xfd\xdc-@'
p62
tp63
bag5
(g6
(I0
tp64
g8
tp65
Rp66
(I1
(tg14
I00
S'\x00\x00\x00\x00^\xc1\xc2?'
p67
tp68
bag5
(g6
(I0
tp69
g8
tp70
Rp71
(I1
(tg14
I00
S'\x00\x00\x00\xa0 *\xc6>'
p72
tp73
bag5
(g6
(I0
tp74
g8
tp75
Rp76
(I1
(tg14
I00
S'\x00\x00\x00\x00\x1f!\x08>'
p77
tp78
bag5
(g6
(I0
tp79
g8
tp80
Rp81
(I1
(tg14
I00
S'\x00\x00\x00\x00\x00\x00\x00\x80'
p82
tp83
bag5
(g6
(I0
tp84
g8
tp85
Rp86
(I1
(tg14
I00
S'\x00\x00\x00\x00\x00\x00\x00\x80'
p87
tp88
bag5
(g6
(I0
tp89
g8
tp90
Rp91
(I1
(tg14
I00
S'\x00\x00\x00\x00\x00\x00\x00\x80'
p92
tp93
bag5
(g6
(I0
tp94
g8
tp95
Rp96
(I1
(tg14
I00
S'\x00\x00\x00@\xe1\xf1d@'
p97
tp98
bag5
(g6
(I0
tp99
g8
tp100
Rp101
(I1
(tg14
I00
S'\x00\x00\x00\x00\x00\x00\x00\x80'
p102
tp103
bag5
(g6
(I0
tp104
g8
tp105
Rp106
(I1
(tg14
I00
S'\x00\x00\x00\x00\x00\x00\x00\x80'
p107
tp108
bag5
(g6
(I0
tp109
g8
tp110
Rp111
(I1
(tg14
I00
S"\x00\x00\x00\x80'\xbf*@"
p112
tp113
bag5
(g6
(I0
tp114
g8
tp115
Rp116
(I1
(tg14
I00
S'\x00\x00\x00 \xa9#2@'
p117
tp118
bag5
(g6
(I0
tp119
g8
tp120
Rp121
(I1
(tg14
I00
S'\x00\x00\x00@.\xedN@'
p122
tp123
bag5
(g6
(I0
tp124
g8
tp125
Rp126
(I1
(tg14
I00
S'\x00\x00\x00\x00\x00\x00\x00\x80'
p127
tp128
bag5
(g6
(I0
tp129
g8
tp130
Rp131
(I1
(tg14
I00
S'\x00\x00\x00\x00\xa8\xf0\xcf='
p132
tp133
baaa(lp134
S'iteration'
p135
a(lp136
I0
aI1
aI2
aI3
aI4
aI5
aI6
aI7
aI8
aI9
aI10
aI11
aI12
aI13
aI14
aI15
aI16
aI17
aI18
aI19
aI20
aI21
aI22
aI23
aaa(lp137
S'accuracy'
p138
a(lp139
g5
(g6
(I0
tp140
g8
tp141
Rp142
(I1
(tg11
(S'f4'
p143
I0
I1
tp144
Rp145
(I3
S'<'
p146
NNNI-1
I-1
I0
tp147
bI00
S'\x00\x00\x00\x00'
p148
tp149
bag5
(g6
(I0
tp150
g8
tp151
Rp152
(I1
(tg145
I00
S'\x00\x00\x80?'
p153
tp154
bag5
(g6
(I0
tp155
g8
tp156
Rp157
(I1
(tg145
I00
S'\x00\x00\x00\x00'
p158
tp159
bag5
(g6
(I0
tp160
g8
tp161
Rp162
(I1
(tg145
I00
S'\x00\x00\x80?'
p163
tp164
bag5
(g6
(I0
tp165
g8
tp166
Rp167
(I1
(tg145
I00
S'\x00\x00\x00\x00'
p168
tp169
bag5
(g6
(I0
tp170
g8
tp171
Rp172
(I1
(tg145
I00
S'\x00\x00\x80?'
p173
tp174
bag5
(g6
(I0
tp175
g8
tp176
Rp177
(I1
(tg145
I00
S'\x00\x00\x80?'
p178
tp179
bag5
(g6
(I0
tp180
g8
tp181
Rp182
(I1
(tg145
I00
S'\x00\x00\x00\x00'
p183
tp184
bag5
(g6
(I0
tp185
g8
tp186
Rp187
(I1
(tg145
I00
S'\x00\x00\x80?'
p188
tp189
bag5
(g6
(I0
tp190
g8
tp191
Rp192
(I1
(tg145
I00
S'\x00\x00\x00\x00'
p193
tp194
bag5
(g6
(I0
tp195
g8
tp196
Rp197
(I1
(tg145
I00
S'\x00\x00\x80?'
p198
tp199
bag5
(g6
(I0
tp200
g8
tp201
Rp202
(I1
(tg145
I00
S'\x00\x00\x80?'
p203
tp204
bag5
(g6
(I0
tp205
g8
tp206
Rp207
(I1
(tg145
I00
S'\x00\x00\x80?'
p208
tp209
bag5
(g6
(I0
tp210
g8
tp211
Rp212
(I1
(tg145
I00
S'\x00\x00\x80?'
p213
tp214
bag5
(g6
(I0
tp215
g8
tp216
Rp217
(I1
(tg145
I00
S'\x00\x00\x80?'
p218
tp219
bag5
(g6
(I0
tp220
g8
tp221
Rp222
(I1
(tg145
I00
S'\x00\x00\x80?'
p223
tp224
bag5
(g6
(I0
tp225
g8
tp226
Rp227
(I1
(tg145
I00
S'\x00\x00\x00\x00'
p228
tp229
bag5
(g6
(I0
tp230
g8
tp231
Rp232
(I1
(tg145
I00
S'\x00\x00\x80?'
p233
tp234
bag5
(g6
(I0
tp235
g8
tp236
Rp237
(I1
(tg145
I00
S'\x00\x00\x80?'
p238
tp239
bag5
(g6
(I0
tp240
g8
tp241
Rp242
(I1
(tg145
I00
S'\x00\x00\x00\x00'
p243
tp244
bag5
(g6
(I0
tp245
g8
tp246
Rp247
(I1
(tg145
I00
S'\x00\x00\x00\x00'
p248
tp249
bag5
(g6
(I0
tp250
g8
tp251
Rp252
(I1
(tg145
I00
S'\x00\x00\x00\x00'
p253
tp254
bag5
(g6
(I0
tp255
g8
tp256
Rp257
(I1
(tg145
I00
S'\x00\x00\x80?'
p258
tp259
bag5
(g6
(I0
tp260
g8
tp261
Rp262
(I1
(tg145
I00
S'\x00\x00\x80?'
p263
tp264
baaatp265
Rp266
.