ccollections
OrderedDict
p0
((lp1
(lp2
S'error'
p3
a(lp4
cnumpy.core.multiarray
_reconstruct
p5
(cnumpy
ndarray
p6
(I0
tp7
S'b'
p8
tp9
Rp10
(I1
(tcnumpy
dtype
p11
(S'f8'
p12
I0
I1
tp13
Rp14
(I3
S'<'
p15
NNNI-1
I-1
I0
tp16
bI00
S'\x00\x00\x00\x80\x8e\xa7dA'
p17
tp18
bag5
(g6
(I0
tp19
g8
tp20
Rp21
(I1
(tg14
I00
S'\x00\x00\x00\x00\x00\x00\x00\x80'
p22
tp23
bag5
(g6
(I0
tp24
g8
tp25
Rp26
(I1
(tg14
I00
S'\x00\x00\x00\x00\x00\x00\x00\x80'
p27
tp28
bag5
(g6
(I0
tp29
g8
tp30
Rp31
(I1
(tg14
I00
S'\x00\x00\x00\x00\xef\xeb\xa0@'
p32
tp33
bag5
(g6
(I0
tp34
g8
tp35
Rp36
(I1
(tg14
I00
S'\x00\x00\x00\xc0\x06c\xd6@'
p37
tp38
bag5
(g6
(I0
tp39
g8
tp40
Rp41
(I1
(tg14
I00
S'\x00\x00\x00 Q\xd7z?'
p42
tp43
bag5
(g6
(I0
tp44
g8
tp45
Rp46
(I1
(tg14
I00
S'\x00\x00\x00\xe0\x9d\xc0\xb6@'
p47
tp48
bag5
(g6
(I0
tp49
g8
tp50
Rp51
(I1
(tg14
I00
S'\x00\x00\x00`L\x15\xe6?'
p52
tp53
bag5
(g6
(I0
tp54
g8
tp55
Rp56
(I1
(tg14
I00
S'\x00\x00\x00\x00H\xcf\xdb='
p57
tp58
bag5
(g6
(I0
tp59
g8
tp60
Rp61
(I1
(tg14
I00
S'\x00\x00\x00\x00\xae\xe7\x10@'
p62
tp63
bag5
(g6
(I0
tp64
g8
tp65
Rp66
(I1
(tg14
I00
S'\x00\x00\x00\x00\xa6\xde\x93@'
p67
tp68
bag5
(g6
(I0
tp69
g8
tp70
Rp71
(I1
(tg14
I00
S'\x00\x00\x00\x00\x00\x00\x00\x80'
p72
tp73
bag5
(g6
(I0
tp74
g8
tp75
Rp76
(I1
(tg14
I00
S'\x00\x00\x00\x00\x00\x00\x00\x80'
p77
tp78
bag5
(g6
(I0
tp79
g8
tp80
Rp81
(I1
(tg14
I00
S'\x00\x00\x00@\\\xce\xc6@'
p82
tp83
bag5
(g6
(I0
tp84
g8
tp85
Rp86
(I1
(tg14
I00
S'\x00\x00\x00@\x90Xu@'
p87
tp88
bag5
(g6
(I0
tp89
g8
tp90
Rp91
(I1
(tg14
I00
S'\x00\x00\x00\x00\x00\x00\x00\x80'
p92
tp93
bag5
(g6
(I0
tp94
g8
tp95
Rp96
(I1
(tg14
I00
S'\x00\x00\x00\x00\x00\x00\x00\x80'
p97
tp98
bag5
(g6
(I0
tp99
g8
tp100
Rp101
(I1
(tg14
I00
S'\x00\x00\x00\x00\x00\x00\x00\x80'
p102
tp103
bag5
(g6
(I0
tp104
g8
tp105
Rp106
(I1
(tg14
I00
S'\x00\x00\x00\xc0j\xee\xb8@'
p107
tp108
bag5
(g6
(I0
tp109
g8
tp110
Rp111
(I1
(tg14
I00
S'\x00\x00\x00\xc0\xd4L\x8e@'
p112
tp113
bag5
(g6
(I0
tp114
g8
tp115
Rp116
(I1
(tg14
I00
S'\x00\x00\x00`\xb8\xc3\x03@'
p117
tp118
bag5
(g6
(I0
tp119
g8
tp120
Rp121
(I1
(tg14
I00
S'\x00\x00\x00\xa0E\x9a\x03@'
p122
tp123
bag5
(g6
(I0
tp124
g8
tp125
Rp126
(I1
(tg14
I00
S'\x00\x00\x00\x00D\x8a\x03@'
p127
tp128
bag5
(g6
(I0
tp129
g8
tp130
Rp131
(I1
(tg14
I00
S'\x00\x00\x00\x00\xf4\xa5\xb5@'
p132
tp133
bag5
(g6
(I0
tp134
g8
tp135
Rp136
(I1
(tg14
I00
S'\x00\x00\x00@\xd4\xa2\xb5@'
p137
tp138
bag5
(g6
(I0
tp139
g8
tp140
Rp141
(I1
(tg14
I00
S'\x00\x00\x00\xc0\x84e\xe9?'
p142
tp143
bag5
(g6
(I0
tp144
g8
tp145
Rp146
(I1
(tg14
I00
S'\x00\x00\x00\x00\x00\x00\x00\x80'
p147
tp148
bag5
(g6
(I0
tp149
g8
tp150
Rp151
(I1
(tg14
I00
S'\x00\x00\x00\x00\xd9,\xb7@'
p152
tp153
bag5
(g6
(I0
tp154
g8
tp155
Rp156
(I1
(tg14
I00
S'\x00\x00\x00\x00\x00\x00\x00\x80'
p157
tp158
bag5
(g6
(I0
tp159
g8
tp160
Rp161
(I1
(tg14
I00
S'\x00\x00\x00\xc0\x0f\xe2\x00@'
p162
tp163
bag5
(g6
(I0
tp164
g8
tp165
Rp166
(I1
(tg14
I00
S'\x00\x00\x00@\xb9E @'
p167
tp168
bag5
(g6
(I0
tp169
g8
tp170
Rp171
(I1
(tg14
I00
S'\x00\x00\x00\x00\x00\x00\x00\x80'
p172
tp173
bag5
(g6
(I0
tp174
g8
tp175
Rp176
(I1
(tg14
I00
S'\x00\x00\x00\x00\x00\x00\x00\x80'
p177
tp178
bag5
(g6
(I0
tp179
g8
tp180
Rp181
(I1
(tg14
I00
S'\x00\x00\x00\x00\x94\x15\xdd?'
p182
tp183
bag5
(g6
(I0
tp184
g8
tp185
Rp186
(I1
(tg14
I00
S'\x00\x00\x00\x00r\x97\xb7@'
p187
tp188
bag5
(g6
(I0
tp189
g8
tp190
Rp191
(I1
(tg14
I00
S'\x00\x00\x00\x00\x00\x00\x00\x80'
p192
tp193
bag5
(g6
(I0
tp194
g8
tp195
Rp196
(I1
(tg14
I00
S'\x00\x00\x00\x00\x00\x00\x00\x80'
p197
tp198
bag5
(g6
(I0
tp199
g8
tp200
Rp201
(I1
(tg14
I00
S'\x00\x00\x00\x00\xca\xdf\x82?'
p202
tp203
bag5
(g6
(I0
tp204
g8
tp205
Rp206
(I1
(tg14
I00
S'\x00\x00\x00\x80\xf5\xe0\x82?'
p207
tp208
bag5
(g6
(I0
tp209
g8
tp210
Rp211
(I1
(tg14
I00
S'\x00\x00\x00\x00\x00\x00\x00\x80'
p212
tp213
bag5
(g6
(I0
tp214
g8
tp215
Rp216
(I1
(tg14
I00
S'\x00\x00\x00@\xf7\x07\xb3@'
p217
tp218
bag5
(g6
(I0
tp219
g8
tp220
Rp221
(I1
(tg14
I00
S'\x00\x00\x00\x00<\xe6\xb4@'
p222
tp223
bag5
(g6
(I0
tp224
g8
tp225
Rp226
(I1
(tg14
I00
S'\x00\x00\x00\x00\xdb\x97\xb7@'
p227
tp228
bag5
(g6
(I0
tp229
g8
tp230
Rp231
(I1
(tg14
I00
S'\x00\x00\x00\x00\x00\x00\x00\x80'
p232
tp233
bag5
(g6
(I0
tp234
g8
tp235
Rp236
(I1
(tg14
I00
S'\x00\x00\x00\x00\x00\x00\x00\x80'
p237
tp238
bag5
(g6
(I0
tp239
g8
tp240
Rp241
(I1
(tg14
I00
S'\x00\x00\x00\x00\x00\x00\x00\x80'
p242
tp243
bag5
(g6
(I0
tp244
g8
tp245
Rp246
(I1
(tg14
I00
S'\x00\x00\x00\x00C\x0c\xb3@'
p247
tp248
bag5
(g6
(I0
tp249
g8
tp250
Rp251
(I1
(tg14
I00
S'\x00\x00\x00\x00\x00\x00\x00\x80'
p252
tp253
bag5
(g6
(I0
tp254
g8
tp255
Rp256
(I1
(tg14
I00
S'\x00\x00\x00\xc0\xbdx\x00@'
p257
tp258
bag5
(g6
(I0
tp259
g8
tp260
Rp261
(I1
(tg14
I00
S'\x00\x00\x00\x00\x00\x00\x00\x80'
p262
tp263
bag5
(g6
(I0
tp264
g8
tp265
Rp266
(I1
(tg14
I00
S'\x00\x00\x00\x00\x00\x00\x00\x80'
p267
tp268
bag5
(g6
(I0
tp269
g8
tp270
Rp271
(I1
(tg14
I00
S'\x00\x00\x00`\xdd\x97\xb7@'
p272
tp273
bag5
(g6
(I0
tp274
g8
tp275
Rp276
(I1
(tg14
I00
S'\x00\x00\x00@\xb7\x97\xb7@'
p277
tp278
bag5
(g6
(I0
tp279
g8
tp280
Rp281
(I1
(tg14
I00
S'\x00\x00\x00\x00\x00\x00\x00\x80'
p282
tp283
bag5
(g6
(I0
tp284
g8
tp285
Rp286
(I1
(tg14
I00
S'\x00\x00\x00\x80\xf1\xbe\xd7@'
p287
tp288
bag5
(g6
(I0
tp289
g8
tp290
Rp291
(I1
(tg14
I00
S'\x00\x00\x00\x00\x00\x00\x00\x80'
p292
tp293
bag5
(g6
(I0
tp294
g8
tp295
Rp296
(I1
(tg14
I00
S'\x00\x00\x00\x00\x00\x00\x00\x80'
p297
tp298
bag5
(g6
(I0
tp299
g8
tp300
Rp301
(I1
(tg14
I00
S'\x00\x00\x00\x00\x00\x00\x00\x80'
p302
tp303
bag5
(g6
(I0
tp304
g8
tp305
Rp306
(I1
(tg14
I00
S'\x00\x00\x00\x80\x02\x94\t@'
p307
tp308
bag5
(g6
(I0
tp309
g8
tp310
Rp311
(I1
(tg14
I00
S'\x00\x00\x00\x00\x00\x00\x00\x80'
p312
tp313
bag5
(g6
(I0
tp314
g8
tp315
Rp316
(I1
(tg14
I00
S'\x00\x00\x00\x00\x00\x00\x00\x80'
p317
tp318
bag5
(g6
(I0
tp319
g8
tp320
Rp321
(I1
(tg14
I00
S'\x00\x00\x00 \xd6O\xfe?'
p322
tp323
bag5
(g6
(I0
tp324
g8
tp325
Rp326
(I1
(tg14
I00
S'\x00\x00\x00\x00\x00\x00\x00\x80'
p327
tp328
bag5
(g6
(I0
tp329
g8
tp330
Rp331
(I1
(tg14
I00
S'\x00\x00\x00\xe0\x85h\x00@'
p332
tp333
bag5
(g6
(I0
tp334
g8
tp335
Rp336
(I1
(tg14
I00
S'\x00\x00\x00\x00)B\x91@'
p337
tp338
bag5
(g6
(I0
tp339
g8
tp340
Rp341
(I1
(tg14
I00
S'\x00\x00\x00`\x19\xce\xdd?'
p342
tp343
bag5
(g6
(I0
tp344
g8
tp345
Rp346
(I1
(tg14
I00
S'\x00\x00\x00\x00\x00\x00\x00\x80'
p347
tp348
bag5
(g6
(I0
tp349
g8
tp350
Rp351
(I1
(tg14
I00
S'\x00\x00\x00\x80o\xda\xfa?'
p352
tp353
bag5
(g6
(I0
tp354
g8
tp355
Rp356
(I1
(tg14
I00
S'\x00\x00\x00\x00\x00\x00\x00\x80'
p357
tp358
bag5
(g6
(I0
tp359
g8
tp360
Rp361
(I1
(tg14
I00
S'\x00\x00\x00\x00\x00\x00\x00\x80'
p362
tp363
bag5
(g6
(I0
tp364
g8
tp365
Rp366
(I1
(tg14
I00
S'\x00\x00\x00\x00\x00\x00\x00\x80'
p367
tp368
bag5
(g6
(I0
tp369
g8
tp370
Rp371
(I1
(tg14
I00
S'\x00\x00\x00`\x83\x12\xb3@'
p372
tp373
bag5
(g6
(I0
tp374
g8
tp375
Rp376
(I1
(tg14
I00
S'\x00\x00\x00\x00\xb0B\x91@'
p377
tp378
bag5
(g6
(I0
tp379
g8
tp380
Rp381
(I1
(tg14
I00
S'\x00\x00\x00\x00\x00\x00\x00\x80'
p382
tp383
bag5
(g6
(I0
tp384
g8
tp385
Rp386
(I1
(tg14
I00
S'\x00\x00\x00\x00\x00\x00\x00\x80'
p387
tp388
bag5
(g6
(I0
tp389
g8
tp390
Rp391
(I1
(tg14
I00
S'\x00\x00\x00\x00\x00\x00\x00\x80'
p392
tp393
bag5
(g6
(I0
tp394
g8
tp395
Rp396
(I1
(tg14
I00
S'\x00\x00\x00\x00\n\x17\xb3@'
p397
tp398
bag5
(g6
(I0
tp399
g8
tp400
Rp401
(I1
(tg14
I00
S'\x00\x00\x00\xc0\x14l\x00@'
p402
tp403
bag5
(g6
(I0
tp404
g8
tp405
Rp406
(I1
(tg14
I00
S'\x00\x00\x00\x00\x1e\xc0\xd7@'
p407
tp408
bag5
(g6
(I0
tp409
g8
tp410
Rp411
(I1
(tg14
I00
S'\x00\x00\x00\x00\x00\x00\x00\x80'
p412
tp413
bag5
(g6
(I0
tp414
g8
tp415
Rp416
(I1
(tg14
I00
S'\x00\x00\x00\xa0\xc0\x16\xb3@'
p417
tp418
bag5
(g6
(I0
tp419
g8
tp420
Rp421
(I1
(tg14
I00
S'\x00\x00\x00\xc0\x06\x18\xb3@'
p422
tp423
bag5
(g6
(I0
tp424
g8
tp425
Rp426
(I1
(tg14
I00
S'\x00\x00\x00\x00\x00\x00\x00\x80'
p427
tp428
bag5
(g6
(I0
tp429
g8
tp430
Rp431
(I1
(tg14
I00
S'\x00\x00\x00\x801\xc0\xd7@'
p432
tp433
bag5
(g6
(I0
tp434
g8
tp435
Rp436
(I1
(tg14
I00
S'\x00\x00\x00\x00\x00\x00\x00\x80'
p437
tp438
bag5
(g6
(I0
tp439
g8
tp440
Rp441
(I1
(tg14
I00
S'\x00\x00\x00\x00\x00\x00\x00\x80'
p442
tp443
bag5
(g6
(I0
tp444
g8
tp445
Rp446
(I1
(tg14
I00
S'\x00\x00\x00\x00\x00\x00\x00\x80'
p447
tp448
bag5
(g6
(I0
tp449
g8
tp450
Rp451
(I1
(tg14
I00
S'\x00\x00\x00\x80\x97\x96\xb7@'
p452
tp453
bag5
(g6
(I0
tp454
g8
tp455
Rp456
(I1
(tg14
I00
S'\x00\x00\x00\x80\xea\xbf\xd7@'
p457
tp458
bag5
(g6
(I0
tp459
g8
tp460
Rp461
(I1
(tg14
I00
S'\x00\x00\x00\x80\xaa\x96\xb7@'
p462
tp463
bag5
(g6
(I0
tp464
g8
tp465
Rp466
(I1
(tg14
I00
S'\x00\x00\x00\x00\x00\x00\x00\x80'
p467
tp468
bag5
(g6
(I0
tp469
g8
tp470
Rp471
(I1
(tg14
I00
S'\x00\x00\x00\x80\xde\x9a\xc7?'
p472
tp473
bag5
(g6
(I0
tp474
g8
tp475
Rp476
(I1
(tg14
I00
S'\x00\x00\x00\x00\x00\x00\x00\x80'
p477
tp478
bag5
(g6
(I0
tp479
g8
tp480
Rp481
(I1
(tg14
I00
S'\x00\x00\x00\x00\x00\x00\x00\x80'
p482
tp483
bag5
(g6
(I0
tp484
g8
tp485
Rp486
(I1
(tg14
I00
S'\x00\x00\x00\x00\x00\x00\x00\x80'
p487
tp488
bag5
(g6
(I0
tp489
g8
tp490
Rp491
(I1
(tg14
I00
S'\x00\x00\x00\x00\x00\x00\x00\x80'
p492
tp493
bag5
(g6
(I0
tp494
g8
tp495
Rp496
(I1
(tg14
I00
S'\x00\x00\x00 <d\x00@'
p497
tp498
bag5
(g6
(I0
tp499
g8
tp500
Rp501
(I1
(tg14
I00
S'\x00\x00\x00 Aq\xdb?'
p502
tp503
bag5
(g6
(I0
tp504
g8
tp505
Rp506
(I1
(tg14
I00
S'\x00\x00\x00\x00\x00\x00\x00\x80'
p507
tp508
bag5
(g6
(I0
tp509
g8
tp510
Rp511
(I1
(tg14
I00
S'\x00\x00\x00\x00\x00\x00\x00\x80'
p512
tp513
bag5
(g6
(I0
tp514
g8
tp515
Rp516
(I1
(tg14
I00
S'\x00\x00\x00\x00\x00\x00\x00\x80'
p517
tp518
bag5
(g6
(I0
tp519
g8
tp520
Rp521
(I1
(tg14
I00
S'\x00\x00\x00\xc0\xae\x95\xb7@'
p522
tp523
bag5
(g6
(I0
tp524
g8
tp525
Rp526
(I1
(tg14
I00
S'\x00\x00\x00\x80V.\x00@'
p527
tp528
bag5
(g6
(I0
tp529
g8
tp530
Rp531
(I1
(tg14
I00
S'\x00\x00\x00\x00\x00\x00\x00\x80'
p532
tp533
bag5
(g6
(I0
tp534
g8
tp535
Rp536
(I1
(tg14
I00
S'\x00\x00\x00\xe0p+\x00@'
p537
tp538
bag5
(g6
(I0
tp539
g8
tp540
Rp541
(I1
(tg14
I00
S'\x00\x00\x00\xc0\x0f\xc1\xd7@'
p542
tp543
bag5
(g6
(I0
tp544
g8
tp545
Rp546
(I1
(tg14
I00
S'\x00\x00\x00\x00\x00\x00\x00\x80'
p547
tp548
bag5
(g6
(I0
tp549
g8
tp550
Rp551
(I1
(tg14
I00
S'\x00\x00\x00\x00\x11\xe6\xb4@'
p552
tp553
bag5
(g6
(I0
tp554
g8
tp555
Rp556
(I1
(tg14
I00
S'\x00\x00\x00\x00\x00\x00\x00\x80'
p557
tp558
bag5
(g6
(I0
tp559
g8
tp560
Rp561
(I1
(tg14
I00
S'\x00\x00\x00`\xfe\x06\x91@'
p562
tp563
bag5
(g6
(I0
tp564
g8
tp565
Rp566
(I1
(tg14
I00
S'\x00\x00\x00@\x939\xce?'
p567
tp568
bag5
(g6
(I0
tp569
g8
tp570
Rp571
(I1
(tg14
I00
S'\x00\x00\x00\x00\x00\x00\x00\x80'
p572
tp573
bag5
(g6
(I0
tp574
g8
tp575
Rp576
(I1
(tg14
I00
S'\x00\x00\x00\xe0\xa4U\x00@'
p577
tp578
bag5
(g6
(I0
tp579
g8
tp580
Rp581
(I1
(tg14
I00
S'\x00\x00\x00\xc0B\xe6\xb4@'
p582
tp583
bag5
(g6
(I0
tp584
g8
tp585
Rp586
(I1
(tg14
I00
S'\x00\x00\x00 =V\x00@'
p587
tp588
bag5
(g6
(I0
tp589
g8
tp590
Rp591
(I1
(tg14
I00
S'\x00\x00\x00\xc0g\x96\xb7@'
p592
tp593
bag5
(g6
(I0
tp594
g8
tp595
Rp596
(I1
(tg14
I00
S'\x00\x00\x00\x00\x00\x00\x00\x80'
p597
tp598
bag5
(g6
(I0
tp599
g8
tp600
Rp601
(I1
(tg14
I00
S'\x00\x00\x00\x00\x00\x00\x00\x80'
p602
tp603
bag5
(g6
(I0
tp604
g8
tp605
Rp606
(I1
(tg14
I00
S'\x00\x00\x00\x00\x00\x00\x00\x80'
p607
tp608
bag5
(g6
(I0
tp609
g8
tp610
Rp611
(I1
(tg14
I00
S'\x00\x00\x00\x00\x00\x00\x00\x80'
p612
tp613
bag5
(g6
(I0
tp614
g8
tp615
Rp616
(I1
(tg14
I00
S'\x00\x00\x00\x00\x00\x00\x00\x80'
p617
tp618
bag5
(g6
(I0
tp619
g8
tp620
Rp621
(I1
(tg14
I00
S'\x00\x00\x00\xc0\xcb\\\x00@'
p622
tp623
bag5
(g6
(I0
tp624
g8
tp625
Rp626
(I1
(tg14
I00
S'\x00\x00\x00\x00\x00\x00\x00\x80'
p627
tp628
bag5
(g6
(I0
tp629
g8
tp630
Rp631
(I1
(tg14
I00
S'\x00\x00\x00\x00\x00\x00\x00\x80'
p632
tp633
bag5
(g6
(I0
tp634
g8
tp635
Rp636
(I1
(tg14
I00
S'\x00\x00\x00\x00\x00\x00\x00\x80'
p637
tp638
bag5
(g6
(I0
tp639
g8
tp640
Rp641
(I1
(tg14
I00
S'\x00\x00\x00\xa0;I\xce?'
p642
tp643
bag5
(g6
(I0
tp644
g8
tp645
Rp646
(I1
(tg14
I00
S'\x00\x00\x00@\xa8\xd2\xe0>'
p647
tp648
bag5
(g6
(I0
tp649
g8
tp650
Rp651
(I1
(tg14
I00
S'\x00\x00\x00\x00\x00\x00\x00\x80'
p652
tp653
bag5
(g6
(I0
tp654
g8
tp655
Rp656
(I1
(tg14
I00
S'\x00\x00\x00\x00\x00\x00\x00\x80'
p657
tp658
bag5
(g6
(I0
tp659
g8
tp660
Rp661
(I1
(tg14
I00
S'\x00\x00\x00\x80)+\xb3@'
p662
tp663
bag5
(g6
(I0
tp664
g8
tp665
Rp666
(I1
(tg14
I00
S'\x00\x00\x00\xa0\x17\x93\xb7@'
p667
tp668
bag5
(g6
(I0
tp669
g8
tp670
Rp671
(I1
(tg14
I00
S'\x00\x00\x00 \xe4\x92\xb7@'
p672
tp673
bag5
(g6
(I0
tp674
g8
tp675
Rp676
(I1
(tg14
I00
S'\x00\x00\x00\xa0\xbb\xc4\xd7@'
p677
tp678
bag5
(g6
(I0
tp679
g8
tp680
Rp681
(I1
(tg14
I00
S'\x00\x00\x00@~|!@'
p682
tp683
bag5
(g6
(I0
tp684
g8
tp685
Rp686
(I1
(tg14
I00
S'\x00\x00\x00\x00\x00\x00\x00\x80'
p687
tp688
bag5
(g6
(I0
tp689
g8
tp690
Rp691
(I1
(tg14
I00
S'\x00\x00\x00\x00\x00\x00\x00\x80'
p692
tp693
bag5
(g6
(I0
tp694
g8
tp695
Rp696
(I1
(tg14
I00
S'\x00\x00\x00\x00\x00\x00\x00\x80'
p697
tp698
bag5
(g6
(I0
tp699
g8
tp700
Rp701
(I1
(tg14
I00
S'\x00\x00\x00\x00\x00\x00\x00\x80'
p702
tp703
bag5
(g6
(I0
tp704
g8
tp705
Rp706
(I1
(tg14
I00
S'\x00\x00\x00\x00\x00\x00\x00\x80'
p707
tp708
bag5
(g6
(I0
tp709
g8
tp710
Rp711
(I1
(tg14
I00
S'\x00\x00\x00\xc0\x07\xc5\xd7@'
p712
tp713
bag5
(g6
(I0
tp714
g8
tp715
Rp716
(I1
(tg14
I00
S'\x00\x00\x00\xa0\xf8\xdf\xe3?'
p717
tp718
bag5
(g6
(I0
tp719
g8
tp720
Rp721
(I1
(tg14
I00
S'\x00\x00\x00\xe0\xda\x92\xb7@'
p722
tp723
bag5
(g6
(I0
tp724
g8
tp725
Rp726
(I1
(tg14
I00
S'\x00\x00\x00\x00\x00\x00\x00\x80'
p727
tp728
bag5
(g6
(I0
tp729
g8
tp730
Rp731
(I1
(tg14
I00
S'\x00\x00\x00 \xd7\xa7\xce?'
p732
tp733
bag5
(g6
(I0
tp734
g8
tp735
Rp736
(I1
(tg14
I00
S'\x00\x00\x00\xc0\xb8\xe6\xb4@'
p737
tp738
bag5
(g6
(I0
tp739
g8
tp740
Rp741
(I1
(tg14
I00
S'\x00\x00\x00\xc0\x9a\x10\xc9>'
p742
tp743
bag5
(g6
(I0
tp744
g8
tp745
Rp746
(I1
(tg14
I00
S'\x00\x00\x00\x80S)\x91@'
p747
tp748
bag5
(g6
(I0
tp749
g8
tp750
Rp751
(I1
(tg14
I00
S'\x00\x00\x00\x00\x00\x00\x00\x80'
p752
tp753
bag5
(g6
(I0
tp754
g8
tp755
Rp756
(I1
(tg14
I00
S'\x00\x00\x00\x00\x00\x00\x00\x80'
p757
tp758
bag5
(g6
(I0
tp759
g8
tp760
Rp761
(I1
(tg14
I00
S'\x00\x00\x00\xa0\x82\x80\xc2>'
p762
tp763
bag5
(g6
(I0
tp764
g8
tp765
Rp766
(I1
(tg14
I00
S'\x00\x00\x00\xa0\xa12"@'
p767
tp768
bag5
(g6
(I0
tp769
g8
tp770
Rp771
(I1
(tg14
I00
S'\x00\x00\x00\x00\x00\x00\x00\x80'
p772
tp773
bag5
(g6
(I0
tp774
g8
tp775
Rp776
(I1
(tg14
I00
S'\x00\x00\x00\x00-\xc5\xd7@'
p777
tp778
bag5
(g6
(I0
tp779
g8
tp780
Rp781
(I1
(tg14
I00
S'\x00\x00\x00\x00q\x1d\xb3@'
p782
tp783
bag5
(g6
(I0
tp784
g8
tp785
Rp786
(I1
(tg14
I00
S'\x00\x00\x00`\xf8\xda\xe8?'
p787
tp788
bag5
(g6
(I0
tp789
g8
tp790
Rp791
(I1
(tg14
I00
S'\x00\x00\x00\xe0\xc1K\xba>'
p792
tp793
bag5
(g6
(I0
tp794
g8
tp795
Rp796
(I1
(tg14
I00
S'\x00\x00\x00\x00\x89\x1f\xe9?'
p797
tp798
bag5
(g6
(I0
tp799
g8
tp800
Rp801
(I1
(tg14
I00
S'\x00\x00\x00\xc0\x9a6\x00@'
p802
tp803
bag5
(g6
(I0
tp804
g8
tp805
Rp806
(I1
(tg14
I00
S'\x00\x00\x00\xc0S;\x00@'
p807
tp808
bag5
(g6
(I0
tp809
g8
tp810
Rp811
(I1
(tg14
I00
S'\x00\x00\x00\x00\x00\x00\x00\x80'
p812
tp813
bag5
(g6
(I0
tp814
g8
tp815
Rp816
(I1
(tg14
I00
S'\x00\x00\x00\x00\x00\x00\x00\x80'
p817
tp818
bag5
(g6
(I0
tp819
g8
tp820
Rp821
(I1
(tg14
I00
S'\x00\x00\x00 \x078\x00@'
p822
tp823
bag5
(g6
(I0
tp824
g8
tp825
Rp826
(I1
(tg14
I00
S'\x00\x00\x00\x00T#\x91@'
p827
tp828
bag5
(g6
(I0
tp829
g8
tp830
Rp831
(I1
(tg14
I00
S'\x00\x00\x00@)\xc5\xd7@'
p832
tp833
bag5
(g6
(I0
tp834
g8
tp835
Rp836
(I1
(tg14
I00
S'\x00\x00\x00\x00\x00\x00\x00\x80'
p837
tp838
bag5
(g6
(I0
tp839
g8
tp840
Rp841
(I1
(tg14
I00
S'\x00\x00\x00\xc0O\x91\xb7@'
p842
tp843
bag5
(g6
(I0
tp844
g8
tp845
Rp846
(I1
(tg14
I00
S'\x00\x00\x00`s{\xbb>'
p847
tp848
bag5
(g6
(I0
tp849
g8
tp850
Rp851
(I1
(tg14
I00
S'\x00\x00\x00\xc0f\xe7\xb4@'
p852
tp853
bag5
(g6
(I0
tp854
g8
tp855
Rp856
(I1
(tg14
I00
S'\x00\x00\x00\xa0Ua\xb9>'
p857
tp858
bag5
(g6
(I0
tp859
g8
tp860
Rp861
(I1
(tg14
I00
S'\x00\x00\x00@\x97"\xba>'
p862
tp863
bag5
(g6
(I0
tp864
g8
tp865
Rp866
(I1
(tg14
I00
S'\x00\x00\x00\x00Di\xbd>'
p867
tp868
bag5
(g6
(I0
tp869
g8
tp870
Rp871
(I1
(tg14
I00
S'\x00\x00\x00\x00\xdd\xc5\xd7@'
p872
tp873
bag5
(g6
(I0
tp874
g8
tp875
Rp876
(I1
(tg14
I00
S'\x00\x00\x00\x00\x00\x00\x00\x80'
p877
tp878
bag5
(g6
(I0
tp879
g8
tp880
Rp881
(I1
(tg14
I00
S'\x00\x00\x00\x00\xab\xc1\xcd?'
p882
tp883
bag5
(g6
(I0
tp884
g8
tp885
Rp886
(I1
(tg14
I00
S'\x00\x00\x00@/\xee#@'
p887
tp888
bag5
(g6
(I0
tp889
g8
tp890
Rp891
(I1
(tg14
I00
S'\x00\x00\x00\x00\x00\x00\x00\x80'
p892
tp893
bag5
(g6
(I0
tp894
g8
tp895
Rp896
(I1
(tg14
I00
S'\x00\x00\x00\x00\x00\x00\x00\x80'
p897
tp898
bag5
(g6
(I0
tp899
g8
tp900
Rp901
(I1
(tg14
I00
S'\x00\x00\x00\x00\x00\x00\x00\x80'
p902
tp903
bag5
(g6
(I0
tp904
g8
tp905
Rp906
(I1
(tg14
I00
S'\x00\x00\x00\x80\xc7\xc8\xd7@'
p907
tp908
bag5
(g6
(I0
tp909
g8
tp910
Rp911
(I1
(tg14
I00
S'\x00\x00\x00\xa0\xcc\xe8\xb4@'
p912
tp913
bag5
(g6
(I0
tp914
g8
tp915
Rp916
(I1
(tg14
I00
S'\x00\x00\x00@\x1c\x19\xb3>'
p917
tp918
bag5
(g6
(I0
tp919
g8
tp920
Rp921
(I1
(tg14
I00
S'\x00\x00\x00\x00\x00\x00\x00\x80'
p922
tp923
bag5
(g6
(I0
tp924
g8
tp925
Rp926
(I1
(tg14
I00
S'\x00\x00\x00\x00\x00\x00\x00\x80'
p927
tp928
bag5
(g6
(I0
tp929
g8
tp930
Rp931
(I1
(tg14
I00
S'\x00\x00\x00\x00\x00\x00\x00\x80'
p932
tp933
bag5
(g6
(I0
tp934
g8
tp935
Rp936
(I1
(tg14
I00
S'\x00\x00\x00\xe0\xaa\xda\xcd?'
p937
tp938
bag5
(g6
(I0
tp939
g8
tp940
Rp941
(I1
(tg14
I00
S'\x00\x00\x00@\x9c(\x91@'
p942
tp943
bag5
(g6
(I0
tp944
g8
tp945
Rp946
(I1
(tg14
I00
S'\x00\x00\x00\x00\x00\x00\x00\x80'
p947
tp948
bag5
(g6
(I0
tp949
g8
tp950
Rp951
(I1
(tg14
I00
S'\x00\x00\x00\x00\xed\xff\xfd='
p952
tp953
bag5
(g6
(I0
tp954
g8
tp955
Rp956
(I1
(tg14
I00
S'\x00\x00\x00\x00\x00\x00\x00\x80'
p957
tp958
bag5
(g6
(I0
tp959
g8
tp960
Rp961
(I1
(tg14
I00
S'\x00\x00\x00\x00\x00\x00\x00\x80'
p962
tp963
bag5
(g6
(I0
tp964
g8
tp965
Rp966
(I1
(tg14
I00
S'\x00\x00\x00\xc0E#\xe4?'
p967
tp968
bag5
(g6
(I0
tp969
g8
tp970
Rp971
(I1
(tg14
I00
S'\x00\x00\x00@\x074\xb3@'
p972
tp973
bag5
(g6
(I0
tp974
g8
tp975
Rp976
(I1
(tg14
I00
S'\x00\x00\x00\x00\x00\x00\x00\x80'
p977
tp978
bag5
(g6
(I0
tp979
g8
tp980
Rp981
(I1
(tg14
I00
S'\x00\x00\x00\x00\x00\x00\x00\x80'
p982
tp983
bag5
(g6
(I0
tp984
g8
tp985
Rp986
(I1
(tg14
I00
S'\x00\x00\x00 \x1eT\xce?'
p987
tp988
bag5
(g6
(I0
tp989
g8
tp990
Rp991
(I1
(tg14
I00
S'\x00\x00\x00@\x175\xb3@'
p992
tp993
bag5
(g6
(I0
tp994
g8
tp995
Rp996
(I1
(tg14
I00
S'\x00\x00\x00\x00\x00\xe0>='
p997
tp998
bag5
(g6
(I0
tp999
g8
tp1000
Rp1001
(I1
(tg14
I00
S'\x00\x00\x00\x00\x00\x00\x00\x80'
p1002
tp1003
bag5
(g6
(I0
tp1004
g8
tp1005
Rp1006
(I1
(tg14
I00
S'\x00\x00\x00@\xd5!\x91@'
p1007
tp1008
bag5
(g6
(I0
tp1009
g8
tp1010
Rp1011
(I1
(tg14
I00
S'\x00\x00\x00\x00\x00\x00\x00\x80'
p1012
tp1013
bag5
(g6
(I0
tp1014
g8
tp1015
Rp1016
(I1
(tg14
I00
S'\x00\x00\x00@\xd1\xd95@'
p1017
tp1018
bag5
(g6
(I0
tp1019
g8
tp1020
Rp1021
(I1
(tg14
I00
S'\x00\x00\x00\xa0$/\x00@'
p1022
tp1023
bag5
(g6
(I0
tp1024
g8
tp1025
Rp1026
(I1
(tg14
I00
S'\x00\x00\x00\x00\x00\x00\x00\x80'
p1027
tp1028
bag5
(g6
(I0
tp1029
g8
tp1030
Rp1031
(I1
(tg14
I00
S'\x00\x00\x00\x00\x00\x00\x00\x80'
p1032
tp1033
bag5
(g6
(I0
tp1034
g8
tp1035
Rp1036
(I1
(tg14
I00
S'\x00\x00\x00\x00\x00\x00\x00\x80'
p1037
tp1038
bag5
(g6
(I0
tp1039
g8
tp1040
Rp1041
(I1
(tg14
I00
S'\x00\x00\x00\x00\x00\x00\x00\x80'
p1042
tp1043
bag5
(g6
(I0
tp1044
g8
tp1045
Rp1046
(I1
(tg14
I00
S'\x00\x00\x00\x00\x00\x00\x00\x80'
p1047
tp1048
bag5
(g6
(I0
tp1049
g8
tp1050
Rp1051
(I1
(tg14
I00
S'\x00\x00\x00\x00\x00\x00\x00\x80'
p1052
tp1053
bag5
(g6
(I0
tp1054
g8
tp1055
Rp1056
(I1
(tg14
I00
S'\x00\x00\x00\x80\x83\xca\xd7@'
p1057
tp1058
bag5
(g6
(I0
tp1059
g8
tp1060
Rp1061
(I1
(tg14
I00
S'\x00\x00\x00\x00\x00\x00\x00\x80'
p1062
tp1063
bag5
(g6
(I0
tp1064
g8
tp1065
Rp1066
(I1
(tg14
I00
S'\x00\x00\x00\xc0\x157\x91@'
p1067
tp1068
bag5
(g6
(I0
tp1069
g8
tp1070
Rp1071
(I1
(tg14
I00
S'\x00\x00\x00\x00\x00\x00\x00\x80'
p1072
tp1073
bag5
(g6
(I0
tp1074
g8
tp1075
Rp1076
(I1
(tg14
I00
S'\x00\x00\x00\x00\x00\xc0"='
p1077
tp1078
bag5
(g6
(I0
tp1079
g8
tp1080
Rp1081
(I1
(tg14
I00
S'\x00\x00\x00 \x80\x8b\xb7@'
p1082
tp1083
bag5
(g6
(I0
tp1084
g8
tp1085
Rp1086
(I1
(tg14
I00
S'\x00\x00\x00\x00\x00\x00\x00\x80'
p1087
tp1088
bag5
(g6
(I0
tp1089
g8
tp1090
Rp1091
(I1
(tg14
I00
S'\x00\x00\x00`\xcc\xf5\xff?'
p1092
tp1093
bag5
(g6
(I0
tp1094
g8
tp1095
Rp1096
(I1
(tg14
I00
S'\x00\x00\x00\x00\x00\x00\x00\x80'
p1097
tp1098
bag5
(g6
(I0
tp1099
g8
tp1100
Rp1101
(I1
(tg14
I00
S'\x00\x00\x00 .B\x91@'
p1102
tp1103
bag5
(g6
(I0
tp1104
g8
tp1105
Rp1106
(I1
(tg14
I00
S'\x00\x00\x00\x00\x00\x00\x00\x80'
p1107
tp1108
bag5
(g6
(I0
tp1109
g8
tp1110
Rp1111
(I1
(tg14
I00
S'\x00\x00\x00\x00\x00\x00\x00\x80'
p1112
tp1113
bag5
(g6
(I0
tp1114
g8
tp1115
Rp1116
(I1
(tg14
I00
S'\x00\x00\x00\xc0V\x8b\xb7@'
p1117
tp1118
bag5
(g6
(I0
tp1119
g8
tp1120
Rp1121
(I1
(tg14
I00
S'\x00\x00\x00`\x16\xac\xce?'
p1122
tp1123
bag5
(g6
(I0
tp1124
g8
tp1125
Rp1126
(I1
(tg14
I00
S'\x00\x00\x00\x00\x00\x00\x00\x80'
p1127
tp1128
bag5
(g6
(I0
tp1129
g8
tp1130
Rp1131
(I1
(tg14
I00
S'\x00\x00\x00\x80S\x8b\xb7@'
p1132
tp1133
bag5
(g6
(I0
tp1134
g8
tp1135
Rp1136
(I1
(tg14
I00
S'\x00\x00\x00\x00\x00\x00\x00\x80'
p1137
tp1138
bag5
(g6
(I0
tp1139
g8
tp1140
Rp1141
(I1
(tg14
I00
S'\x00\x00\x00@\xf4\x0c6@'
p1142
tp1143
bag5
(g6
(I0
tp1144
g8
tp1145
Rp1146
(I1
(tg14
I00
S'\x00\x00\x00\x00\x00\x00\x00\x80'
p1147
tp1148
bag5
(g6
(I0
tp1149
g8
tp1150
Rp1151
(I1
(tg14
I00
S'\x00\x00\x00\x00\x00\x00\x00\x80'
p1152
tp1153
bag5
(g6
(I0
tp1154
g8
tp1155
Rp1156
(I1
(tg14
I00
S'\x00\x00\x00\x00\x00\x00\x00\x80'
p1157
tp1158
bag5
(g6
(I0
tp1159
g8
tp1160
Rp1161
(I1
(tg14
I00
S'\x00\x00\x00\x00\x00\x00\x00\x80'
p1162
tp1163
bag5
(g6
(I0
tp1164
g8
tp1165
Rp1166
(I1
(tg14
I00
S'\x00\x00\x00\x00\x00\x00\x00\x80'
p1167
tp1168
bag5
(g6
(I0
tp1169
g8
tp1170
Rp1171
(I1
(tg14
I00
S'\x00\x00\x00\x00\x00\x00\x00\x80'
p1172
tp1173
bag5
(g6
(I0
tp1174
g8
tp1175
Rp1176
(I1
(tg14
I00
S"\x00\x00\x00@}'\x00@"
p1177
tp1178
bag5
(g6
(I0
tp1179
g8
tp1180
Rp1181
(I1
(tg14
I00
S'\x00\x00\x00\x00\x00\x00\x00\x80'
p1182
tp1183
bag5
(g6
(I0
tp1184
g8
tp1185
Rp1186
(I1
(tg14
I00
S'\x00\x00\x00\x00\x00\x00\x00\x80'
p1187
tp1188
bag5
(g6
(I0
tp1189
g8
tp1190
Rp1191
(I1
(tg14
I00
S'\x00\x00\x00 \x83\xf1\xe3?'
p1192
tp1193
bag5
(g6
(I0
tp1194
g8
tp1195
Rp1196
(I1
(tg14
I00
S'\x00\x00\x00\x00\x00\x00\x00\x80'
p1197
tp1198
bag5
(g6
(I0
tp1199
g8
tp1200
Rp1201
(I1
(tg14
I00
S'\x00\x00\x00\x00\xee\xea\xb4@'
p1202
tp1203
bag5
(g6
(I0
tp1204
g8
tp1205
Rp1206
(I1
(tg14
I00
S'\x00\x00\x00\x00\x00\x00\x00\x80'
p1207
tp1208
bag5
(g6
(I0
tp1209
g8
tp1210
Rp1211
(I1
(tg14
I00
S'\x00\x00\x00\x00\x00\x00\x00\x80'
p1212
tp1213
bag5
(g6
(I0
tp1214
g8
tp1215
Rp1216
(I1
(tg14
I00
S'\x00\x00\x00\x00\x00\x00\x00\x80'
p1217
tp1218
bag5
(g6
(I0
tp1219
g8
tp1220
Rp1221
(I1
(tg14
I00
S'\x00\x00\x00\xe0\xb5\xc4\xe3?'
p1222
tp1223
bag5
(g6
(I0
tp1224
g8
tp1225
Rp1226
(I1
(tg14
I00
S'\x00\x00\x00\xa0p\xbc\xe3?'
p1227
tp1228
bag5
(g6
(I0
tp1229
g8
tp1230
Rp1231
(I1
(tg14
I00
S'\x00\x00\x00\x80H\x8b\xb7@'
p1232
tp1233
bag5
(g6
(I0
tp1234
g8
tp1235
Rp1236
(I1
(tg14
I00
S'\x00\x00\x00\x00\x00\x00\x00\x80'
p1237
tp1238
bag5
(g6
(I0
tp1239
g8
tp1240
Rp1241
(I1
(tg14
I00
S'\x00\x00\x00\x00\x00\x00\x00\x80'
p1242
tp1243
bag5
(g6
(I0
tp1244
g8
tp1245
Rp1246
(I1
(tg14
I00
S'\x00\x00\x00\x00\x00\x00\x00\x80'
p1247
tp1248
bag5
(g6
(I0
tp1249
g8
tp1250
Rp1251
(I1
(tg14
I00
S'\x00\x00\x00\x00B\xeb\xb4@'
p1252
tp1253
bag5
(g6
(I0
tp1254
g8
tp1255
Rp1256
(I1
(tg14
I00
S'\x00\x00\x00\x80>\x8b\xb7@'
p1257
tp1258
bag5
(g6
(I0
tp1259
g8
tp1260
Rp1261
(I1
(tg14
I00
S'\x00\x00\x00\xc0`\x966@'
p1262
tp1263
bag5
(g6
(I0
tp1264
g8
tp1265
Rp1266
(I1
(tg14
I00
S'\x00\x00\x00\x00\x00\x00\x00\x80'
p1267
tp1268
bag5
(g6
(I0
tp1269
g8
tp1270
Rp1271
(I1
(tg14
I00
S'\x00\x00\x00\xe0C\xeb\xb4@'
p1272
tp1273
bag5
(g6
(I0
tp1274
g8
tp1275
Rp1276
(I1
(tg14
I00
S'\x00\x00\x00\xc0\xac5\xb3@'
p1277
tp1278
bag5
(g6
(I0
tp1279
g8
tp1280
Rp1281
(I1
(tg14
I00
S'\x00\x00\x00\x00\x00\x00\x00\x80'
p1282
tp1283
bag5
(g6
(I0
tp1284
g8
tp1285
Rp1286
(I1
(tg14
I00
S'\x00\x00\x00\x00\x00\x00\x00\x80'
p1287
tp1288
bag5
(g6
(I0
tp1289
g8
tp1290
Rp1291
(I1
(tg14
I00
S'\x00\x00\x00\xc0\xdb5\x00@'
p1292
tp1293
bag5
(g6
(I0
tp1294
g8
tp1295
Rp1296
(I1
(tg14
I00
S'\x00\x00\x00\x00\x00\x00\x00\x80'
p1297
tp1298
bag5
(g6
(I0
tp1299
g8
tp1300
Rp1301
(I1
(tg14
I00
S'\x00\x00\x00\x00\x00\x00!='
p1302
tp1303
bag5
(g6
(I0
tp1304
g8
tp1305
Rp1306
(I1
(tg14
I00
S'\x00\x00\x00\x00L1\x91@'
p1307
tp1308
bag5
(g6
(I0
tp1309
g8
tp1310
Rp1311
(I1
(tg14
I00
S'\x00\x00\x00\x00\t\xec\xb4@'
p1312
tp1313
bag5
(g6
(I0
tp1314
g8
tp1315
Rp1316
(I1
(tg14
I00
S'\x00\x00\x00\x80\xe6\x10\x00@'
p1317
tp1318
bag5
(g6
(I0
tp1319
g8
tp1320
Rp1321
(I1
(tg14
I00
S'\x00\x00\x00\xc0\xe2G\x91@'
p1322
tp1323
bag5
(g6
(I0
tp1324
g8
tp1325
Rp1326
(I1
(tg14
I00
S'\x00\x00\x00\xa0\x0f\xea6@'
p1327
tp1328
bag5
(g6
(I0
tp1329
g8
tp1330
Rp1331
(I1
(tg14
I00
S'\x00\x00\x00\x00\x00\x00\x00\x80'
p1332
tp1333
bag5
(g6
(I0
tp1334
g8
tp1335
Rp1336
(I1
(tg14
I00
S'\x00\x00\x00\x00\x00\x00\x00\x80'
p1337
tp1338
bag5
(g6
(I0
tp1339
g8
tp1340
Rp1341
(I1
(tg14
I00
S'\x00\x00\x00@\x8157@'
p1342
tp1343
bag5
(g6
(I0
tp1344
g8
tp1345
Rp1346
(I1
(tg14
I00
S'\x00\x00\x00\x00\x00\x00\x00\x80'
p1347
tp1348
bag5
(g6
(I0
tp1349
g8
tp1350
Rp1351
(I1
(tg14
I00
S'\x00\x00\x00@\xd5o\xe3?'
p1352
tp1353
bag5
(g6
(I0
tp1354
g8
tp1355
Rp1356
(I1
(tg14
I00
S'\x00\x00\x00\x00\x89\xec\xb4@'
p1357
tp1358
bag5
(g6
(I0
tp1359
g8
tp1360
Rp1361
(I1
(tg14
I00
S'\x00\x00\x00\x00\x00\x00\x00\x80'
p1362
tp1363
bag5
(g6
(I0
tp1364
g8
tp1365
Rp1366
(I1
(tg14
I00
S'\x00\x00\x00\x00\x00\x00\x00\x80'
p1367
tp1368
bag5
(g6
(I0
tp1369
g8
tp1370
Rp1371
(I1
(tg14
I00
S'\x00\x00\x00\x00\x00\x00\x00\x80'
p1372
tp1373
bag5
(g6
(I0
tp1374
g8
tp1375
Rp1376
(I1
(tg14
I00
S'\x00\x00\x00\x00\x00\x00\x00\x80'
p1377
tp1378
bag5
(g6
(I0
tp1379
g8
tp1380
Rp1381
(I1
(tg14
I00
S'\x00\x00\x00@\xfc\x80\xe3?'
p1382
tp1383
bag5
(g6
(I0
tp1384
g8
tp1385
Rp1386
(I1
(tg14
I00
S'\x00\x00\x00\x00\x00\x00\x00\x80'
p1387
tp1388
bag5
(g6
(I0
tp1389
g8
tp1390
Rp1391
(I1
(tg14
I00
S'\x00\x00\x00\xa0\x82\xf0\xff?'
p1392
tp1393
bag5
(g6
(I0
tp1394
g8
tp1395
Rp1396
(I1
(tg14
I00
S'\x00\x00\x00\x00\x00\x00\x00\x80'
p1397
tp1398
bag5
(g6
(I0
tp1399
g8
tp1400
Rp1401
(I1
(tg14
I00
S'\x00\x00\x00`\xa1\xe3\xff?'
p1402
tp1403
bag5
(g6
(I0
tp1404
g8
tp1405
Rp1406
(I1
(tg14
I00
S'\x00\x00\x00\x00\x00\x00\x00\x80'
p1407
tp1408
bag5
(g6
(I0
tp1409
g8
tp1410
Rp1411
(I1
(tg14
I00
S'\x00\x00\x00@\xa9\xce\xce?'
p1412
tp1413
bag5
(g6
(I0
tp1414
g8
tp1415
Rp1416
(I1
(tg14
I00
S'\x00\x00\x00\x00\x00\x00\x00\x80'
p1417
tp1418
bag5
(g6
(I0
tp1419
g8
tp1420
Rp1421
(I1
(tg14
I00
S'\x00\x00\x00\xc0\xd5\xf6\xff?'
p1422
tp1423
bag5
(g6
(I0
tp1424
g8
tp1425
Rp1426
(I1
(tg14
I00
S'\x00\x00\x00\x80\xc1\xc37@'
p1427
tp1428
bag5
(g6
(I0
tp1429
g8
tp1430
Rp1431
(I1
(tg14
I00
S'\x00\x00\x00\x00\x00\x00\x00\x80'
p1432
tp1433
bag5
(g6
(I0
tp1434
g8
tp1435
Rp1436
(I1
(tg14
I00
S'\x00\x00\x00\x00\x00\x00\x00\x80'
p1437
tp1438
bag5
(g6
(I0
tp1439
g8
tp1440
Rp1441
(I1
(tg14
I00
S'\x00\x00\x00@\x92\xed\xb4@'
p1442
tp1443
bag5
(g6
(I0
tp1444
g8
tp1445
Rp1446
(I1
(tg14
I00
S'\x00\x00\x00\x00\x00\x80\x00='
p1447
tp1448
bag5
(g6
(I0
tp1449
g8
tp1450
Rp1451
(I1
(tg14
I00
S'\x00\x00\x00\x80\x95\xce\xd7@'
p1452
tp1453
bag5
(g6
(I0
tp1454
g8
tp1455
Rp1456
(I1
(tg14
I00
S'\x00\x00\x00\xa0\xa0\xce\xd7@'
p1457
tp1458
bag5
(g6
(I0
tp1459
g8
tp1460
Rp1461
(I1
(tg14
I00
S'\x00\x00\x00\x00\x00\x00\x00\x80'
p1462
tp1463
bag5
(g6
(I0
tp1464
g8
tp1465
Rp1466
(I1
(tg14
I00
S'\x00\x00\x00\x00\x00\x00\x00\x80'
p1467
tp1468
bag5
(g6
(I0
tp1469
g8
tp1470
Rp1471
(I1
(tg14
I00
S'\x00\x00\x00\x00\x00\x00\x00\x80'
p1472
tp1473
bag5
(g6
(I0
tp1474
g8
tp1475
Rp1476
(I1
(tg14
I00
S'\x00\x00\x00\x00\x00\x00\x00\x80'
p1477
tp1478
bag5
(g6
(I0
tp1479
g8
tp1480
Rp1481
(I1
(tg14
I00
S'\x00\x00\x00\x00\x00\x80\x08='
p1482
tp1483
bag5
(g6
(I0
tp1484
g8
tp1485
Rp1486
(I1
(tg14
I00
S'\x00\x00\x00\x80\x9c\xce\xd7@'
p1487
tp1488
bag5
(g6
(I0
tp1489
g8
tp1490
Rp1491
(I1
(tg14
I00
S'\x00\x00\x00\x00\x00\x00\x00\x80'
p1492
tp1493
bag5
(g6
(I0
tp1494
g8
tp1495
Rp1496
(I1
(tg14
I00
S'\x00\x00\x00\x00\xf9\xd7\xff?'
p1497
tp1498
bag5
(g6
(I0
tp1499
g8
tp1500
Rp1501
(I1
(tg14
I00
S'\x00\x00\x00\x00\x00\x00\x00\x80'
p1502
tp1503
bag5
(g6
(I0
tp1504
g8
tp1505
Rp1506
(I1
(tg14
I00
S'\x00\x00\x00\x00\x00\x00\x00\x80'
p1507
tp1508
bag5
(g6
(I0
tp1509
g8
tp1510
Rp1511
(I1
(tg14
I00
S'\x00\x00\x00\x00\x00\x00\x00\x80'
p1512
tp1513
bag5
(g6
(I0
tp1514
g8
tp1515
Rp1516
(I1
(tg14
I00
S'\x00\x00\x00\x00\x00\x00\x00\x80'
p1517
tp1518
bag5
(g6
(I0
tp1519
g8
tp1520
Rp1521
(I1
(tg14
I00
S'\x00\x00\x00\x00\x00\x00\x00\x80'
p1522
tp1523
bag5
(g6
(I0
tp1524
g8
tp1525
Rp1526
(I1
(tg14
I00
S'\x00\x00\x00\xa0R\xb98@'
p1527
tp1528
baaa(lp1529
S'iteration'
p1530
a(lp1531
I0
aI1
aI2
aI3
aI4
aI5
aI6
aI7
aI8
aI9
aI10
aI11
aI12
aI13
aI14
aI15
aI16
aI17
aI18
aI19
aI20
aI21
aI22
aI23
aI24
aI25
aI26
aI27
aI28
aI29
aI30
aI31
aI32
aI33
aI34
aI35
aI36
aI37
aI38
aI39
aI40
aI41
aI42
aI43
aI44
aI45
aI46
aI47
aI48
aI49
aI50
aI51
aI52
aI53
aI54
aI55
aI56
aI57
aI58
aI59
aI60
aI61
aI62
aI63
aI64
aI65
aI66
aI67
aI68
aI69
aI70
aI71
aI72
aI73
aI74
aI75
aI76
aI77
aI78
aI79
aI80
aI81
aI82
aI83
aI84
aI85
aI86
aI87
aI88
aI89
aI90
aI91
aI92
aI93
aI94
aI95
aI96
aI97
aI98
aI99
aI100
aI101
aI102
aI103
aI104
aI105
aI106
aI107
aI108
aI109
aI110
aI111
aI112
aI113
aI114
aI115
aI116
aI117
aI118
aI119
aI120
aI121
aI122
aI123
aI124
aI125
aI126
aI127
aI128
aI129
aI130
aI131
aI132
aI133
aI134
aI135
aI136
aI137
aI138
aI139
aI140
aI141
aI142
aI143
aI144
aI145
aI146
aI147
aI148
aI149
aI150
aI151
aI152
aI153
aI154
aI155
aI156
aI157
aI158
aI159
aI160
aI161
aI162
aI163
aI164
aI165
aI166
aI167
aI168
aI169
aI170
aI171
aI172
aI173
aI174
aI175
aI176
aI177
aI178
aI179
aI180
aI181
aI182
aI183
aI184
aI185
aI186
aI187
aI188
aI189
aI190
aI191
aI192
aI193
aI194
aI195
aI196
aI197
aI198
aI199
aI200
aI201
aI202
aI203
aI204
aI205
aI206
aI207
aI208
aI209
aI210
aI211
aI212
aI213
aI214
aI215
aI216
aI217
aI218
aI219
aI220
aI221
aI222
aI223
aI224
aI225
aI226
aI227
aI228
aI229
aI230
aI231
aI232
aI233
aI234
aI235
aI236
aI237
aI238
aI239
aI240
aI241
aI242
aI243
aI244
aI245
aI246
aI247
aI248
aI249
aI250
aI251
aI252
aI253
aI254
aI255
aI256
aI257
aI258
aI259
aI260
aI261
aI262
aI263
aI264
aI265
aI266
aI267
aI268
aI269
aI270
aI271
aI272
aI273
aI274
aI275
aI276
aI277
aI278
aI279
aI280
aI281
aI282
aI283
aI284
aI285
aI286
aI287
aI288
aI289
aI290
aI291
aI292
aI293
aI294
aI295
aI296
aI297
aI298
aI299
aI300
aI301
aI302
aaa(lp1532
S'accuracy'
p1533
a(lp1534
g5
(g6
(I0
tp1535
g8
tp1536
Rp1537
(I1
(tg11
(S'f4'
p1538
I0
I1
tp1539
Rp1540
(I3
S'<'
p1541
NNNI-1
I-1
I0
tp1542
bI00
S'\x00\x00\x00\x00'
p1543
tp1544
bag5
(g6
(I0
tp1545
g8
tp1546
Rp1547
(I1
(tg1540
I00
S'\x00\x00\x80?'
p1548
tp1549
bag5
(g6
(I0
tp1550
g8
tp1551
Rp1552
(I1
(tg1540
I00
S'\x00\x00\x80?'
p1553
tp1554
bag5
(g6
(I0
tp1555
g8
tp1556
Rp1557
(I1
(tg1540
I00
S'\x00\x00\x00\x00'
p1558
tp1559
bag5
(g6
(I0
tp1560
g8
tp1561
Rp1562
(I1
(tg1540
I00
S'\x00\x00\x00\x00'
p1563
tp1564
bag5
(g6
(I0
tp1565
g8
tp1566
Rp1567
(I1
(tg1540
I00
S'\x00\x00\x80?'
p1568
tp1569
bag5
(g6
(I0
tp1570
g8
tp1571
Rp1572
(I1
(tg1540
I00
S'\x00\x00\x00\x00'
p1573
tp1574
bag5
(g6
(I0
tp1575
g8
tp1576
Rp1577
(I1
(tg1540
I00
S'\x00\x00\x80?'
p1578
tp1579
bag5
(g6
(I0
tp1580
g8
tp1581
Rp1582
(I1
(tg1540
I00
S'\x00\x00\x80?'
p1583
tp1584
bag5
(g6
(I0
tp1585
g8
tp1586
Rp1587
(I1
(tg1540
I00
S'\x00\x00\x00\x00'
p1588
tp1589
bag5
(g6
(I0
tp1590
g8
tp1591
Rp1592
(I1
(tg1540
I00
S'\x00\x00\x00\x00'
p1593
tp1594
bag5
(g6
(I0
tp1595
g8
tp1596
Rp1597
(I1
(tg1540
I00
S'\x00\x00\x80?'
p1598
tp1599
bag5
(g6
(I0
tp1600
g8
tp1601
Rp1602
(I1
(tg1540
I00
S'\x00\x00\x80?'
p1603
tp1604
bag5
(g6
(I0
tp1605
g8
tp1606
Rp1607
(I1
(tg1540
I00
S'\x00\x00\x00\x00'
p1608
tp1609
bag5
(g6
(I0
tp1610
g8
tp1611
Rp1612
(I1
(tg1540
I00
S'\x00\x00\x00\x00'
p1613
tp1614
bag5
(g6
(I0
tp1615
g8
tp1616
Rp1617
(I1
(tg1540
I00
S'\x00\x00\x80?'
p1618
tp1619
bag5
(g6
(I0
tp1620
g8
tp1621
Rp1622
(I1
(tg1540
I00
S'\x00\x00\x80?'
p1623
tp1624
bag5
(g6
(I0
tp1625
g8
tp1626
Rp1627
(I1
(tg1540
I00
S'\x00\x00\x80?'
p1628
tp1629
bag5
(g6
(I0
tp1630
g8
tp1631
Rp1632
(I1
(tg1540
I00
S'\x00\x00\x00\x00'
p1633
tp1634
bag5
(g6
(I0
tp1635
g8
tp1636
Rp1637
(I1
(tg1540
I00
S'\x00\x00\x00\x00'
p1638
tp1639
bag5
(g6
(I0
tp1640
g8
tp1641
Rp1642
(I1
(tg1540
I00
S'\x00\x00\x00\x00'
p1643
tp1644
bag5
(g6
(I0
tp1645
g8
tp1646
Rp1647
(I1
(tg1540
I00
S'\x00\x00\x00\x00'
p1648
tp1649
bag5
(g6
(I0
tp1650
g8
tp1651
Rp1652
(I1
(tg1540
I00
S'\x00\x00\x00\x00'
p1653
tp1654
bag5
(g6
(I0
tp1655
g8
tp1656
Rp1657
(I1
(tg1540
I00
S'\x00\x00\x00\x00'
p1658
tp1659
bag5
(g6
(I0
tp1660
g8
tp1661
Rp1662
(I1
(tg1540
I00
S'\x00\x00\x00\x00'
p1663
tp1664
bag5
(g6
(I0
tp1665
g8
tp1666
Rp1667
(I1
(tg1540
I00
S'\x00\x00\x00\x00'
p1668
tp1669
bag5
(g6
(I0
tp1670
g8
tp1671
Rp1672
(I1
(tg1540
I00
S'\x00\x00\x80?'
p1673
tp1674
bag5
(g6
(I0
tp1675
g8
tp1676
Rp1677
(I1
(tg1540
I00
S'\x00\x00\x00\x00'
p1678
tp1679
bag5
(g6
(I0
tp1680
g8
tp1681
Rp1682
(I1
(tg1540
I00
S'\x00\x00\x80?'
p1683
tp1684
bag5
(g6
(I0
tp1685
g8
tp1686
Rp1687
(I1
(tg1540
I00
S'\x00\x00\x00\x00'
p1688
tp1689
bag5
(g6
(I0
tp1690
g8
tp1691
Rp1692
(I1
(tg1540
I00
S'\x00\x00\x00\x00'
p1693
tp1694
bag5
(g6
(I0
tp1695
g8
tp1696
Rp1697
(I1
(tg1540
I00
S'\x00\x00\x80?'
p1698
tp1699
bag5
(g6
(I0
tp1700
g8
tp1701
Rp1702
(I1
(tg1540
I00
S'\x00\x00\x80?'
p1703
tp1704
bag5
(g6
(I0
tp1705
g8
tp1706
Rp1707
(I1
(tg1540
I00
S'\x00\x00\x80?'
p1708
tp1709
bag5
(g6
(I0
tp1710
g8
tp1711
Rp1712
(I1
(tg1540
I00
S'\x00\x00\x00\x00'
p1713
tp1714
bag5
(g6
(I0
tp1715
g8
tp1716
Rp1717
(I1
(tg1540
I00
S'\x00\x00\x80?'
p1718
tp1719
bag5
(g6
(I0
tp1720
g8
tp1721
Rp1722
(I1
(tg1540
I00
S'\x00\x00\x80?'
p1723
tp1724
bag5
(g6
(I0
tp1725
g8
tp1726
Rp1727
(I1
(tg1540
I00
S'\x00\x00\x80?'
p1728
tp1729
bag5
(g6
(I0
tp1730
g8
tp1731
Rp1732
(I1
(tg1540
I00
S'\x00\x00\x80?'
p1733
tp1734
bag5
(g6
(I0
tp1735
g8
tp1736
Rp1737
(I1
(tg1540
I00
S'\x00\x00\x80?'
p1738
tp1739
bag5
(g6
(I0
tp1740
g8
tp1741
Rp1742
(I1
(tg1540
I00
S'\x00\x00\x00\x00'
p1743
tp1744
bag5
(g6
(I0
tp1745
g8
tp1746
Rp1747
(I1
(tg1540
I00
S'\x00\x00\x00\x00'
p1748
tp1749
bag5
(g6
(I0
tp1750
g8
tp1751
Rp1752
(I1
(tg1540
I00
S'\x00\x00\x00\x00'
p1753
tp1754
bag5
(g6
(I0
tp1755
g8
tp1756
Rp1757
(I1
(tg1540
I00
S'\x00\x00\x80?'
p1758
tp1759
bag5
(g6
(I0
tp1760
g8
tp1761
Rp1762
(I1
(tg1540
I00
S'\x00\x00\x80?'
p1763
tp1764
bag5
(g6
(I0
tp1765
g8
tp1766
Rp1767
(I1
(tg1540
I00
S'\x00\x00\x80?'
p1768
tp1769
bag5
(g6
(I0
tp1770
g8
tp1771
Rp1772
(I1
(tg1540
I00
S'\x00\x00\x00\x00'
p1773
tp1774
bag5
(g6
(I0
tp1775
g8
tp1776
Rp1777
(I1
(tg1540
I00
S'\x00\x00\x80?'
p1778
tp1779
bag5
(g6
(I0
tp1780
g8
tp1781
Rp1782
(I1
(tg1540
I00
S'\x00\x00\x00\x00'
p1783
tp1784
bag5
(g6
(I0
tp1785
g8
tp1786
Rp1787
(I1
(tg1540
I00
S'\x00\x00\x80?'
p1788
tp1789
bag5
(g6
(I0
tp1790
g8
tp1791
Rp1792
(I1
(tg1540
I00
S'\x00\x00\x80?'
p1793
tp1794
bag5
(g6
(I0
tp1795
g8
tp1796
Rp1797
(I1
(tg1540
I00
S'\x00\x00\x00\x00'
p1798
tp1799
bag5
(g6
(I0
tp1800
g8
tp1801
Rp1802
(I1
(tg1540
I00
S'\x00\x00\x00\x00'
p1803
tp1804
bag5
(g6
(I0
tp1805
g8
tp1806
Rp1807
(I1
(tg1540
I00
S'\x00\x00\x80?'
p1808
tp1809
bag5
(g6
(I0
tp1810
g8
tp1811
Rp1812
(I1
(tg1540
I00
S'\x00\x00\x00\x00'
p1813
tp1814
bag5
(g6
(I0
tp1815
g8
tp1816
Rp1817
(I1
(tg1540
I00
S'\x00\x00\x80?'
p1818
tp1819
bag5
(g6
(I0
tp1820
g8
tp1821
Rp1822
(I1
(tg1540
I00
S'\x00\x00\x80?'
p1823
tp1824
bag5
(g6
(I0
tp1825
g8
tp1826
Rp1827
(I1
(tg1540
I00
S'\x00\x00\x80?'
p1828
tp1829
bag5
(g6
(I0
tp1830
g8
tp1831
Rp1832
(I1
(tg1540
I00
S'\x00\x00\x00\x00'
p1833
tp1834
bag5
(g6
(I0
tp1835
g8
tp1836
Rp1837
(I1
(tg1540
I00
S'\x00\x00\x80?'
p1838
tp1839
bag5
(g6
(I0
tp1840
g8
tp1841
Rp1842
(I1
(tg1540
I00
S'\x00\x00\x80?'
p1843
tp1844
bag5
(g6
(I0
tp1845
g8
tp1846
Rp1847
(I1
(tg1540
I00
S'\x00\x00\x00\x00'
p1848
tp1849
bag5
(g6
(I0
tp1850
g8
tp1851
Rp1852
(I1
(tg1540
I00
S'\x00\x00\x80?'
p1853
tp1854
bag5
(g6
(I0
tp1855
g8
tp1856
Rp1857
(I1
(tg1540
I00
S'\x00\x00\x00\x00'
p1858
tp1859
bag5
(g6
(I0
tp1860
g8
tp1861
Rp1862
(I1
(tg1540
I00
S'\x00\x00\x00\x00'
p1863
tp1864
bag5
(g6
(I0
tp1865
g8
tp1866
Rp1867
(I1
(tg1540
I00
S'\x00\x00\x80?'
p1868
tp1869
bag5
(g6
(I0
tp1870
g8
tp1871
Rp1872
(I1
(tg1540
I00
S'\x00\x00\x80?'
p1873
tp1874
bag5
(g6
(I0
tp1875
g8
tp1876
Rp1877
(I1
(tg1540
I00
S'\x00\x00\x00\x00'
p1878
tp1879
bag5
(g6
(I0
tp1880
g8
tp1881
Rp1882
(I1
(tg1540
I00
S'\x00\x00\x80?'
p1883
tp1884
bag5
(g6
(I0
tp1885
g8
tp1886
Rp1887
(I1
(tg1540
I00
S'\x00\x00\x80?'
p1888
tp1889
bag5
(g6
(I0
tp1890
g8
tp1891
Rp1892
(I1
(tg1540
I00
S'\x00\x00\x80?'
p1893
tp1894
bag5
(g6
(I0
tp1895
g8
tp1896
Rp1897
(I1
(tg1540
I00
S'\x00\x00\x00\x00'
p1898
tp1899
bag5
(g6
(I0
tp1900
g8
tp1901
Rp1902
(I1
(tg1540
I00
S'\x00\x00\x00\x00'
p1903
tp1904
bag5
(g6
(I0
tp1905
g8
tp1906
Rp1907
(I1
(tg1540
I00
S'\x00\x00\x80?'
p1908
tp1909
bag5
(g6
(I0
tp1910
g8
tp1911
Rp1912
(I1
(tg1540
I00
S'\x00\x00\x80?'
p1913
tp1914
bag5
(g6
(I0
tp1915
g8
tp1916
Rp1917
(I1
(tg1540
I00
S'\x00\x00\x80?'
p1918
tp1919
bag5
(g6
(I0
tp1920
g8
tp1921
Rp1922
(I1
(tg1540
I00
S'\x00\x00\x00\x00'
p1923
tp1924
bag5
(g6
(I0
tp1925
g8
tp1926
Rp1927
(I1
(tg1540
I00
S'\x00\x00\x00\x00'
p1928
tp1929
bag5
(g6
(I0
tp1930
g8
tp1931
Rp1932
(I1
(tg1540
I00
S'\x00\x00\x00\x00'
p1933
tp1934
bag5
(g6
(I0
tp1935
g8
tp1936
Rp1937
(I1
(tg1540
I00
S'\x00\x00\x80?'
p1938
tp1939
bag5
(g6
(I0
tp1940
g8
tp1941
Rp1942
(I1
(tg1540
I00
S'\x00\x00\x00\x00'
p1943
tp1944
bag5
(g6
(I0
tp1945
g8
tp1946
Rp1947
(I1
(tg1540
I00
S'\x00\x00\x00\x00'
p1948
tp1949
bag5
(g6
(I0
tp1950
g8
tp1951
Rp1952
(I1
(tg1540
I00
S'\x00\x00\x80?'
p1953
tp1954
bag5
(g6
(I0
tp1955
g8
tp1956
Rp1957
(I1
(tg1540
I00
S'\x00\x00\x00\x00'
p1958
tp1959
bag5
(g6
(I0
tp1960
g8
tp1961
Rp1962
(I1
(tg1540
I00
S'\x00\x00\x80?'
p1963
tp1964
bag5
(g6
(I0
tp1965
g8
tp1966
Rp1967
(I1
(tg1540
I00
S'\x00\x00\x80?'
p1968
tp1969
bag5
(g6
(I0
tp1970
g8
tp1971
Rp1972
(I1
(tg1540
I00
S'\x00\x00\x80?'
p1973
tp1974
bag5
(g6
(I0
tp1975
g8
tp1976
Rp1977
(I1
(tg1540
I00
S'\x00\x00\x00\x00'
p1978
tp1979
bag5
(g6
(I0
tp1980
g8
tp1981
Rp1982
(I1
(tg1540
I00
S'\x00\x00\x00\x00'
p1983
tp1984
bag5
(g6
(I0
tp1985
g8
tp1986
Rp1987
(I1
(tg1540
I00
S'\x00\x00\x00\x00'
p1988
tp1989
bag5
(g6
(I0
tp1990
g8
tp1991
Rp1992
(I1
(tg1540
I00
S'\x00\x00\x80?'
p1993
tp1994
bag5
(g6
(I0
tp1995
g8
tp1996
Rp1997
(I1
(tg1540
I00
S'\x00\x00\x80?'
p1998
tp1999
bag5
(g6
(I0
tp2000
g8
tp2001
Rp2002
(I1
(tg1540
I00
S'\x00\x00\x80?'
p2003
tp2004
bag5
(g6
(I0
tp2005
g8
tp2006
Rp2007
(I1
(tg1540
I00
S'\x00\x00\x80?'
p2008
tp2009
bag5
(g6
(I0
tp2010
g8
tp2011
Rp2012
(I1
(tg1540
I00
S'\x00\x00\x80?'
p2013
tp2014
bag5
(g6
(I0
tp2015
g8
tp2016
Rp2017
(I1
(tg1540
I00
S'\x00\x00\x80?'
p2018
tp2019
bag5
(g6
(I0
tp2020
g8
tp2021
Rp2022
(I1
(tg1540
I00
S'\x00\x00\x00\x00'
p2023
tp2024
bag5
(g6
(I0
tp2025
g8
tp2026
Rp2027
(I1
(tg1540
I00
S'\x00\x00\x80?'
p2028
tp2029
bag5
(g6
(I0
tp2030
g8
tp2031
Rp2032
(I1
(tg1540
I00
S'\x00\x00\x80?'
p2033
tp2034
bag5
(g6
(I0
tp2035
g8
tp2036
Rp2037
(I1
(tg1540
I00
S'\x00\x00\x80?'
p2038
tp2039
bag5
(g6
(I0
tp2040
g8
tp2041
Rp2042
(I1
(tg1540
I00
S'\x00\x00\x80?'
p2043
tp2044
bag5
(g6
(I0
tp2045
g8
tp2046
Rp2047
(I1
(tg1540
I00
S'\x00\x00\x00\x00'
p2048
tp2049
bag5
(g6
(I0
tp2050
g8
tp2051
Rp2052
(I1
(tg1540
I00
S'\x00\x00\x00\x00'
p2053
tp2054
bag5
(g6
(I0
tp2055
g8
tp2056
Rp2057
(I1
(tg1540
I00
S'\x00\x00\x80?'
p2058
tp2059
bag5
(g6
(I0
tp2060
g8
tp2061
Rp2062
(I1
(tg1540
I00
S'\x00\x00\x00\x00'
p2063
tp2064
bag5
(g6
(I0
tp2065
g8
tp2066
Rp2067
(I1
(tg1540
I00
S'\x00\x00\x00\x00'
p2068
tp2069
bag5
(g6
(I0
tp2070
g8
tp2071
Rp2072
(I1
(tg1540
I00
S'\x00\x00\x80?'
p2073
tp2074
bag5
(g6
(I0
tp2075
g8
tp2076
Rp2077
(I1
(tg1540
I00
S'\x00\x00\x00\x00'
p2078
tp2079
bag5
(g6
(I0
tp2080
g8
tp2081
Rp2082
(I1
(tg1540
I00
S'\x00\x00\x80?'
p2083
tp2084
bag5
(g6
(I0
tp2085
g8
tp2086
Rp2087
(I1
(tg1540
I00
S'\x00\x00\x00\x00'
p2088
tp2089
bag5
(g6
(I0
tp2090
g8
tp2091
Rp2092
(I1
(tg1540
I00
S'\x00\x00\x80?'
p2093
tp2094
bag5
(g6
(I0
tp2095
g8
tp2096
Rp2097
(I1
(tg1540
I00
S'\x00\x00\x80?'
p2098
tp2099
bag5
(g6
(I0
tp2100
g8
tp2101
Rp2102
(I1
(tg1540
I00
S'\x00\x00\x00\x00'
p2103
tp2104
bag5
(g6
(I0
tp2105
g8
tp2106
Rp2107
(I1
(tg1540
I00
S'\x00\x00\x00\x00'
p2108
tp2109
bag5
(g6
(I0
tp2110
g8
tp2111
Rp2112
(I1
(tg1540
I00
S'\x00\x00\x00\x00'
p2113
tp2114
bag5
(g6
(I0
tp2115
g8
tp2116
Rp2117
(I1
(tg1540
I00
S'\x00\x00\x00\x00'
p2118
tp2119
bag5
(g6
(I0
tp2120
g8
tp2121
Rp2122
(I1
(tg1540
I00
S'\x00\x00\x80?'
p2123
tp2124
bag5
(g6
(I0
tp2125
g8
tp2126
Rp2127
(I1
(tg1540
I00
S'\x00\x00\x80?'
p2128
tp2129
bag5
(g6
(I0
tp2130
g8
tp2131
Rp2132
(I1
(tg1540
I00
S'\x00\x00\x80?'
p2133
tp2134
bag5
(g6
(I0
tp2135
g8
tp2136
Rp2137
(I1
(tg1540
I00
S'\x00\x00\x80?'
p2138
tp2139
bag5
(g6
(I0
tp2140
g8
tp2141
Rp2142
(I1
(tg1540
I00
S'\x00\x00\x80?'
p2143
tp2144
bag5
(g6
(I0
tp2145
g8
tp2146
Rp2147
(I1
(tg1540
I00
S'\x00\x00\x00\x00'
p2148
tp2149
bag5
(g6
(I0
tp2150
g8
tp2151
Rp2152
(I1
(tg1540
I00
S'\x00\x00\x80?'
p2153
tp2154
bag5
(g6
(I0
tp2155
g8
tp2156
Rp2157
(I1
(tg1540
I00
S'\x00\x00\x80?'
p2158
tp2159
bag5
(g6
(I0
tp2160
g8
tp2161
Rp2162
(I1
(tg1540
I00
S'\x00\x00\x80?'
p2163
tp2164
bag5
(g6
(I0
tp2165
g8
tp2166
Rp2167
(I1
(tg1540
I00
S'\x00\x00\x80?'
p2168
tp2169
bag5
(g6
(I0
tp2170
g8
tp2171
Rp2172
(I1
(tg1540
I00
S'\x00\x00\x80?'
p2173
tp2174
bag5
(g6
(I0
tp2175
g8
tp2176
Rp2177
(I1
(tg1540
I00
S'\x00\x00\x80?'
p2178
tp2179
bag5
(g6
(I0
tp2180
g8
tp2181
Rp2182
(I1
(tg1540
I00
S'\x00\x00\x80?'
p2183
tp2184
bag5
(g6
(I0
tp2185
g8
tp2186
Rp2187
(I1
(tg1540
I00
S'\x00\x00\x00\x00'
p2188
tp2189
bag5
(g6
(I0
tp2190
g8
tp2191
Rp2192
(I1
(tg1540
I00
S'\x00\x00\x00\x00'
p2193
tp2194
bag5
(g6
(I0
tp2195
g8
tp2196
Rp2197
(I1
(tg1540
I00
S'\x00\x00\x00\x00'
p2198
tp2199
bag5
(g6
(I0
tp2200
g8
tp2201
Rp2202
(I1
(tg1540
I00
S'\x00\x00\x00\x00'
p2203
tp2204
bag5
(g6
(I0
tp2205
g8
tp2206
Rp2207
(I1
(tg1540
I00
S'\x00\x00\x00\x00'
p2208
tp2209
bag5
(g6
(I0
tp2210
g8
tp2211
Rp2212
(I1
(tg1540
I00
S'\x00\x00\x80?'
p2213
tp2214
bag5
(g6
(I0
tp2215
g8
tp2216
Rp2217
(I1
(tg1540
I00
S'\x00\x00\x80?'
p2218
tp2219
bag5
(g6
(I0
tp2220
g8
tp2221
Rp2222
(I1
(tg1540
I00
S'\x00\x00\x80?'
p2223
tp2224
bag5
(g6
(I0
tp2225
g8
tp2226
Rp2227
(I1
(tg1540
I00
S'\x00\x00\x80?'
p2228
tp2229
bag5
(g6
(I0
tp2230
g8
tp2231
Rp2232
(I1
(tg1540
I00
S'\x00\x00\x80?'
p2233
tp2234
bag5
(g6
(I0
tp2235
g8
tp2236
Rp2237
(I1
(tg1540
I00
S'\x00\x00\x00\x00'
p2238
tp2239
bag5
(g6
(I0
tp2240
g8
tp2241
Rp2242
(I1
(tg1540
I00
S'\x00\x00\x80?'
p2243
tp2244
bag5
(g6
(I0
tp2245
g8
tp2246
Rp2247
(I1
(tg1540
I00
S'\x00\x00\x00\x00'
p2248
tp2249
bag5
(g6
(I0
tp2250
g8
tp2251
Rp2252
(I1
(tg1540
I00
S'\x00\x00\x80?'
p2253
tp2254
bag5
(g6
(I0
tp2255
g8
tp2256
Rp2257
(I1
(tg1540
I00
S'\x00\x00\x80?'
p2258
tp2259
bag5
(g6
(I0
tp2260
g8
tp2261
Rp2262
(I1
(tg1540
I00
S'\x00\x00\x00\x00'
p2263
tp2264
bag5
(g6
(I0
tp2265
g8
tp2266
Rp2267
(I1
(tg1540
I00
S'\x00\x00\x80?'
p2268
tp2269
bag5
(g6
(I0
tp2270
g8
tp2271
Rp2272
(I1
(tg1540
I00
S'\x00\x00\x00\x00'
p2273
tp2274
bag5
(g6
(I0
tp2275
g8
tp2276
Rp2277
(I1
(tg1540
I00
S'\x00\x00\x80?'
p2278
tp2279
bag5
(g6
(I0
tp2280
g8
tp2281
Rp2282
(I1
(tg1540
I00
S'\x00\x00\x80?'
p2283
tp2284
bag5
(g6
(I0
tp2285
g8
tp2286
Rp2287
(I1
(tg1540
I00
S'\x00\x00\x80?'
p2288
tp2289
bag5
(g6
(I0
tp2290
g8
tp2291
Rp2292
(I1
(tg1540
I00
S'\x00\x00\x00\x00'
p2293
tp2294
bag5
(g6
(I0
tp2295
g8
tp2296
Rp2297
(I1
(tg1540
I00
S'\x00\x00\x80?'
p2298
tp2299
bag5
(g6
(I0
tp2300
g8
tp2301
Rp2302
(I1
(tg1540
I00
S'\x00\x00\x00\x00'
p2303
tp2304
bag5
(g6
(I0
tp2305
g8
tp2306
Rp2307
(I1
(tg1540
I00
S'\x00\x00\x00\x00'
p2308
tp2309
bag5
(g6
(I0
tp2310
g8
tp2311
Rp2312
(I1
(tg1540
I00
S'\x00\x00\x00\x00'
p2313
tp2314
bag5
(g6
(I0
tp2315
g8
tp2316
Rp2317
(I1
(tg1540
I00
S'\x00\x00\x80?'
p2318
tp2319
bag5
(g6
(I0
tp2320
g8
tp2321
Rp2322
(I1
(tg1540
I00
S'\x00\x00\x00\x00'
p2323
tp2324
bag5
(g6
(I0
tp2325
g8
tp2326
Rp2327
(I1
(tg1540
I00
S'\x00\x00\x00\x00'
p2328
tp2329
bag5
(g6
(I0
tp2330
g8
tp2331
Rp2332
(I1
(tg1540
I00
S'\x00\x00\x00\x00'
p2333
tp2334
bag5
(g6
(I0
tp2335
g8
tp2336
Rp2337
(I1
(tg1540
I00
S'\x00\x00\x80?'
p2338
tp2339
bag5
(g6
(I0
tp2340
g8
tp2341
Rp2342
(I1
(tg1540
I00
S'\x00\x00\x80?'
p2343
tp2344
bag5
(g6
(I0
tp2345
g8
tp2346
Rp2347
(I1
(tg1540
I00
S'\x00\x00\x00\x00'
p2348
tp2349
bag5
(g6
(I0
tp2350
g8
tp2351
Rp2352
(I1
(tg1540
I00
S'\x00\x00\x00\x00'
p2353
tp2354
bag5
(g6
(I0
tp2355
g8
tp2356
Rp2357
(I1
(tg1540
I00
S'\x00\x00\x00\x00'
p2358
tp2359
bag5
(g6
(I0
tp2360
g8
tp2361
Rp2362
(I1
(tg1540
I00
S'\x00\x00\x80?'
p2363
tp2364
bag5
(g6
(I0
tp2365
g8
tp2366
Rp2367
(I1
(tg1540
I00
S'\x00\x00\x00\x00'
p2368
tp2369
bag5
(g6
(I0
tp2370
g8
tp2371
Rp2372
(I1
(tg1540
I00
S'\x00\x00\x80?'
p2373
tp2374
bag5
(g6
(I0
tp2375
g8
tp2376
Rp2377
(I1
(tg1540
I00
S'\x00\x00\x00\x00'
p2378
tp2379
bag5
(g6
(I0
tp2380
g8
tp2381
Rp2382
(I1
(tg1540
I00
S'\x00\x00\x80?'
p2383
tp2384
bag5
(g6
(I0
tp2385
g8
tp2386
Rp2387
(I1
(tg1540
I00
S'\x00\x00\x80?'
p2388
tp2389
bag5
(g6
(I0
tp2390
g8
tp2391
Rp2392
(I1
(tg1540
I00
S'\x00\x00\x80?'
p2393
tp2394
bag5
(g6
(I0
tp2395
g8
tp2396
Rp2397
(I1
(tg1540
I00
S'\x00\x00\x00\x00'
p2398
tp2399
bag5
(g6
(I0
tp2400
g8
tp2401
Rp2402
(I1
(tg1540
I00
S'\x00\x00\x80?'
p2403
tp2404
bag5
(g6
(I0
tp2405
g8
tp2406
Rp2407
(I1
(tg1540
I00
S'\x00\x00\x80?'
p2408
tp2409
bag5
(g6
(I0
tp2410
g8
tp2411
Rp2412
(I1
(tg1540
I00
S'\x00\x00\x00\x00'
p2413
tp2414
bag5
(g6
(I0
tp2415
g8
tp2416
Rp2417
(I1
(tg1540
I00
S'\x00\x00\x80?'
p2418
tp2419
bag5
(g6
(I0
tp2420
g8
tp2421
Rp2422
(I1
(tg1540
I00
S'\x00\x00\x80?'
p2423
tp2424
bag5
(g6
(I0
tp2425
g8
tp2426
Rp2427
(I1
(tg1540
I00
S'\x00\x00\x80?'
p2428
tp2429
bag5
(g6
(I0
tp2430
g8
tp2431
Rp2432
(I1
(tg1540
I00
S'\x00\x00\x00\x00'
p2433
tp2434
bag5
(g6
(I0
tp2435
g8
tp2436
Rp2437
(I1
(tg1540
I00
S'\x00\x00\x00\x00'
p2438
tp2439
bag5
(g6
(I0
tp2440
g8
tp2441
Rp2442
(I1
(tg1540
I00
S'\x00\x00\x80?'
p2443
tp2444
bag5
(g6
(I0
tp2445
g8
tp2446
Rp2447
(I1
(tg1540
I00
S'\x00\x00\x80?'
p2448
tp2449
bag5
(g6
(I0
tp2450
g8
tp2451
Rp2452
(I1
(tg1540
I00
S'\x00\x00\x80?'
p2453
tp2454
bag5
(g6
(I0
tp2455
g8
tp2456
Rp2457
(I1
(tg1540
I00
S'\x00\x00\x80?'
p2458
tp2459
bag5
(g6
(I0
tp2460
g8
tp2461
Rp2462
(I1
(tg1540
I00
S'\x00\x00\x80?'
p2463
tp2464
bag5
(g6
(I0
tp2465
g8
tp2466
Rp2467
(I1
(tg1540
I00
S'\x00\x00\x00\x00'
p2468
tp2469
bag5
(g6
(I0
tp2470
g8
tp2471
Rp2472
(I1
(tg1540
I00
S'\x00\x00\x80?'
p2473
tp2474
bag5
(g6
(I0
tp2475
g8
tp2476
Rp2477
(I1
(tg1540
I00
S'\x00\x00\x80?'
p2478
tp2479
bag5
(g6
(I0
tp2480
g8
tp2481
Rp2482
(I1
(tg1540
I00
S'\x00\x00\x80?'
p2483
tp2484
bag5
(g6
(I0
tp2485
g8
tp2486
Rp2487
(I1
(tg1540
I00
S'\x00\x00\x80?'
p2488
tp2489
bag5
(g6
(I0
tp2490
g8
tp2491
Rp2492
(I1
(tg1540
I00
S'\x00\x00\x80?'
p2493
tp2494
bag5
(g6
(I0
tp2495
g8
tp2496
Rp2497
(I1
(tg1540
I00
S'\x00\x00\x00\x00'
p2498
tp2499
bag5
(g6
(I0
tp2500
g8
tp2501
Rp2502
(I1
(tg1540
I00
S'\x00\x00\x80?'
p2503
tp2504
bag5
(g6
(I0
tp2505
g8
tp2506
Rp2507
(I1
(tg1540
I00
S'\x00\x00\x80?'
p2508
tp2509
bag5
(g6
(I0
tp2510
g8
tp2511
Rp2512
(I1
(tg1540
I00
S'\x00\x00\x80?'
p2513
tp2514
bag5
(g6
(I0
tp2515
g8
tp2516
Rp2517
(I1
(tg1540
I00
S'\x00\x00\x00\x00'
p2518
tp2519
bag5
(g6
(I0
tp2520
g8
tp2521
Rp2522
(I1
(tg1540
I00
S'\x00\x00\x80?'
p2523
tp2524
bag5
(g6
(I0
tp2525
g8
tp2526
Rp2527
(I1
(tg1540
I00
S'\x00\x00\x80?'
p2528
tp2529
bag5
(g6
(I0
tp2530
g8
tp2531
Rp2532
(I1
(tg1540
I00
S'\x00\x00\x00\x00'
p2533
tp2534
bag5
(g6
(I0
tp2535
g8
tp2536
Rp2537
(I1
(tg1540
I00
S'\x00\x00\x80?'
p2538
tp2539
bag5
(g6
(I0
tp2540
g8
tp2541
Rp2542
(I1
(tg1540
I00
S'\x00\x00\x00\x00'
p2543
tp2544
bag5
(g6
(I0
tp2545
g8
tp2546
Rp2547
(I1
(tg1540
I00
S'\x00\x00\x00\x00'
p2548
tp2549
bag5
(g6
(I0
tp2550
g8
tp2551
Rp2552
(I1
(tg1540
I00
S'\x00\x00\x80?'
p2553
tp2554
bag5
(g6
(I0
tp2555
g8
tp2556
Rp2557
(I1
(tg1540
I00
S'\x00\x00\x80?'
p2558
tp2559
bag5
(g6
(I0
tp2560
g8
tp2561
Rp2562
(I1
(tg1540
I00
S'\x00\x00\x80?'
p2563
tp2564
bag5
(g6
(I0
tp2565
g8
tp2566
Rp2567
(I1
(tg1540
I00
S'\x00\x00\x80?'
p2568
tp2569
bag5
(g6
(I0
tp2570
g8
tp2571
Rp2572
(I1
(tg1540
I00
S'\x00\x00\x80?'
p2573
tp2574
bag5
(g6
(I0
tp2575
g8
tp2576
Rp2577
(I1
(tg1540
I00
S'\x00\x00\x80?'
p2578
tp2579
bag5
(g6
(I0
tp2580
g8
tp2581
Rp2582
(I1
(tg1540
I00
S'\x00\x00\x00\x00'
p2583
tp2584
bag5
(g6
(I0
tp2585
g8
tp2586
Rp2587
(I1
(tg1540
I00
S'\x00\x00\x80?'
p2588
tp2589
bag5
(g6
(I0
tp2590
g8
tp2591
Rp2592
(I1
(tg1540
I00
S'\x00\x00\x00\x00'
p2593
tp2594
bag5
(g6
(I0
tp2595
g8
tp2596
Rp2597
(I1
(tg1540
I00
S'\x00\x00\x80?'
p2598
tp2599
bag5
(g6
(I0
tp2600
g8
tp2601
Rp2602
(I1
(tg1540
I00
S'\x00\x00\x80?'
p2603
tp2604
bag5
(g6
(I0
tp2605
g8
tp2606
Rp2607
(I1
(tg1540
I00
S'\x00\x00\x00\x00'
p2608
tp2609
bag5
(g6
(I0
tp2610
g8
tp2611
Rp2612
(I1
(tg1540
I00
S'\x00\x00\x80?'
p2613
tp2614
bag5
(g6
(I0
tp2615
g8
tp2616
Rp2617
(I1
(tg1540
I00
S'\x00\x00\x00\x00'
p2618
tp2619
bag5
(g6
(I0
tp2620
g8
tp2621
Rp2622
(I1
(tg1540
I00
S'\x00\x00\x80?'
p2623
tp2624
bag5
(g6
(I0
tp2625
g8
tp2626
Rp2627
(I1
(tg1540
I00
S'\x00\x00\x00\x00'
p2628
tp2629
bag5
(g6
(I0
tp2630
g8
tp2631
Rp2632
(I1
(tg1540
I00
S'\x00\x00\x80?'
p2633
tp2634
bag5
(g6
(I0
tp2635
g8
tp2636
Rp2637
(I1
(tg1540
I00
S'\x00\x00\x80?'
p2638
tp2639
bag5
(g6
(I0
tp2640
g8
tp2641
Rp2642
(I1
(tg1540
I00
S'\x00\x00\x00\x00'
p2643
tp2644
bag5
(g6
(I0
tp2645
g8
tp2646
Rp2647
(I1
(tg1540
I00
S'\x00\x00\x80?'
p2648
tp2649
bag5
(g6
(I0
tp2650
g8
tp2651
Rp2652
(I1
(tg1540
I00
S'\x00\x00\x80?'
p2653
tp2654
bag5
(g6
(I0
tp2655
g8
tp2656
Rp2657
(I1
(tg1540
I00
S'\x00\x00\x00\x00'
p2658
tp2659
bag5
(g6
(I0
tp2660
g8
tp2661
Rp2662
(I1
(tg1540
I00
S'\x00\x00\x80?'
p2663
tp2664
bag5
(g6
(I0
tp2665
g8
tp2666
Rp2667
(I1
(tg1540
I00
S'\x00\x00\x00\x00'
p2668
tp2669
bag5
(g6
(I0
tp2670
g8
tp2671
Rp2672
(I1
(tg1540
I00
S'\x00\x00\x80?'
p2673
tp2674
bag5
(g6
(I0
tp2675
g8
tp2676
Rp2677
(I1
(tg1540
I00
S'\x00\x00\x80?'
p2678
tp2679
bag5
(g6
(I0
tp2680
g8
tp2681
Rp2682
(I1
(tg1540
I00
S'\x00\x00\x80?'
p2683
tp2684
bag5
(g6
(I0
tp2685
g8
tp2686
Rp2687
(I1
(tg1540
I00
S'\x00\x00\x80?'
p2688
tp2689
bag5
(g6
(I0
tp2690
g8
tp2691
Rp2692
(I1
(tg1540
I00
S'\x00\x00\x80?'
p2693
tp2694
bag5
(g6
(I0
tp2695
g8
tp2696
Rp2697
(I1
(tg1540
I00
S'\x00\x00\x80?'
p2698
tp2699
bag5
(g6
(I0
tp2700
g8
tp2701
Rp2702
(I1
(tg1540
I00
S'\x00\x00\x00\x00'
p2703
tp2704
bag5
(g6
(I0
tp2705
g8
tp2706
Rp2707
(I1
(tg1540
I00
S'\x00\x00\x80?'
p2708
tp2709
bag5
(g6
(I0
tp2710
g8
tp2711
Rp2712
(I1
(tg1540
I00
S'\x00\x00\x80?'
p2713
tp2714
bag5
(g6
(I0
tp2715
g8
tp2716
Rp2717
(I1
(tg1540
I00
S'\x00\x00\x80?'
p2718
tp2719
bag5
(g6
(I0
tp2720
g8
tp2721
Rp2722
(I1
(tg1540
I00
S'\x00\x00\x80?'
p2723
tp2724
bag5
(g6
(I0
tp2725
g8
tp2726
Rp2727
(I1
(tg1540
I00
S'\x00\x00\x00\x00'
p2728
tp2729
bag5
(g6
(I0
tp2730
g8
tp2731
Rp2732
(I1
(tg1540
I00
S'\x00\x00\x80?'
p2733
tp2734
bag5
(g6
(I0
tp2735
g8
tp2736
Rp2737
(I1
(tg1540
I00
S'\x00\x00\x80?'
p2738
tp2739
bag5
(g6
(I0
tp2740
g8
tp2741
Rp2742
(I1
(tg1540
I00
S'\x00\x00\x80?'
p2743
tp2744
bag5
(g6
(I0
tp2745
g8
tp2746
Rp2747
(I1
(tg1540
I00
S'\x00\x00\x80?'
p2748
tp2749
bag5
(g6
(I0
tp2750
g8
tp2751
Rp2752
(I1
(tg1540
I00
S'\x00\x00\x80?'
p2753
tp2754
bag5
(g6
(I0
tp2755
g8
tp2756
Rp2757
(I1
(tg1540
I00
S'\x00\x00\x00\x00'
p2758
tp2759
bag5
(g6
(I0
tp2760
g8
tp2761
Rp2762
(I1
(tg1540
I00
S'\x00\x00\x80?'
p2763
tp2764
bag5
(g6
(I0
tp2765
g8
tp2766
Rp2767
(I1
(tg1540
I00
S'\x00\x00\x80?'
p2768
tp2769
bag5
(g6
(I0
tp2770
g8
tp2771
Rp2772
(I1
(tg1540
I00
S'\x00\x00\x80?'
p2773
tp2774
bag5
(g6
(I0
tp2775
g8
tp2776
Rp2777
(I1
(tg1540
I00
S'\x00\x00\x00\x00'
p2778
tp2779
bag5
(g6
(I0
tp2780
g8
tp2781
Rp2782
(I1
(tg1540
I00
S'\x00\x00\x00\x00'
p2783
tp2784
bag5
(g6
(I0
tp2785
g8
tp2786
Rp2787
(I1
(tg1540
I00
S'\x00\x00\x00\x00'
p2788
tp2789
bag5
(g6
(I0
tp2790
g8
tp2791
Rp2792
(I1
(tg1540
I00
S'\x00\x00\x80?'
p2793
tp2794
bag5
(g6
(I0
tp2795
g8
tp2796
Rp2797
(I1
(tg1540
I00
S'\x00\x00\x00\x00'
p2798
tp2799
bag5
(g6
(I0
tp2800
g8
tp2801
Rp2802
(I1
(tg1540
I00
S'\x00\x00\x00\x00'
p2803
tp2804
bag5
(g6
(I0
tp2805
g8
tp2806
Rp2807
(I1
(tg1540
I00
S'\x00\x00\x80?'
p2808
tp2809
bag5
(g6
(I0
tp2810
g8
tp2811
Rp2812
(I1
(tg1540
I00
S'\x00\x00\x80?'
p2813
tp2814
bag5
(g6
(I0
tp2815
g8
tp2816
Rp2817
(I1
(tg1540
I00
S'\x00\x00\x00\x00'
p2818
tp2819
bag5
(g6
(I0
tp2820
g8
tp2821
Rp2822
(I1
(tg1540
I00
S'\x00\x00\x80?'
p2823
tp2824
bag5
(g6
(I0
tp2825
g8
tp2826
Rp2827
(I1
(tg1540
I00
S'\x00\x00\x80?'
p2828
tp2829
bag5
(g6
(I0
tp2830
g8
tp2831
Rp2832
(I1
(tg1540
I00
S'\x00\x00\x00\x00'
p2833
tp2834
bag5
(g6
(I0
tp2835
g8
tp2836
Rp2837
(I1
(tg1540
I00
S'\x00\x00\x00\x00'
p2838
tp2839
bag5
(g6
(I0
tp2840
g8
tp2841
Rp2842
(I1
(tg1540
I00
S'\x00\x00\x00\x00'
p2843
tp2844
bag5
(g6
(I0
tp2845
g8
tp2846
Rp2847
(I1
(tg1540
I00
S'\x00\x00\x00\x00'
p2848
tp2849
bag5
(g6
(I0
tp2850
g8
tp2851
Rp2852
(I1
(tg1540
I00
S'\x00\x00\x00\x00'
p2853
tp2854
bag5
(g6
(I0
tp2855
g8
tp2856
Rp2857
(I1
(tg1540
I00
S'\x00\x00\x80?'
p2858
tp2859
bag5
(g6
(I0
tp2860
g8
tp2861
Rp2862
(I1
(tg1540
I00
S'\x00\x00\x80?'
p2863
tp2864
bag5
(g6
(I0
tp2865
g8
tp2866
Rp2867
(I1
(tg1540
I00
S'\x00\x00\x00\x00'
p2868
tp2869
bag5
(g6
(I0
tp2870
g8
tp2871
Rp2872
(I1
(tg1540
I00
S'\x00\x00\x80?'
p2873
tp2874
bag5
(g6
(I0
tp2875
g8
tp2876
Rp2877
(I1
(tg1540
I00
S'\x00\x00\x80?'
p2878
tp2879
bag5
(g6
(I0
tp2880
g8
tp2881
Rp2882
(I1
(tg1540
I00
S'\x00\x00\x00\x00'
p2883
tp2884
bag5
(g6
(I0
tp2885
g8
tp2886
Rp2887
(I1
(tg1540
I00
S'\x00\x00\x80?'
p2888
tp2889
bag5
(g6
(I0
tp2890
g8
tp2891
Rp2892
(I1
(tg1540
I00
S'\x00\x00\x80?'
p2893
tp2894
bag5
(g6
(I0
tp2895
g8
tp2896
Rp2897
(I1
(tg1540
I00
S'\x00\x00\x80?'
p2898
tp2899
bag5
(g6
(I0
tp2900
g8
tp2901
Rp2902
(I1
(tg1540
I00
S'\x00\x00\x80?'
p2903
tp2904
bag5
(g6
(I0
tp2905
g8
tp2906
Rp2907
(I1
(tg1540
I00
S'\x00\x00\x80?'
p2908
tp2909
bag5
(g6
(I0
tp2910
g8
tp2911
Rp2912
(I1
(tg1540
I00
S'\x00\x00\x80?'
p2913
tp2914
bag5
(g6
(I0
tp2915
g8
tp2916
Rp2917
(I1
(tg1540
I00
S'\x00\x00\x00\x00'
p2918
tp2919
bag5
(g6
(I0
tp2920
g8
tp2921
Rp2922
(I1
(tg1540
I00
S'\x00\x00\x80?'
p2923
tp2924
bag5
(g6
(I0
tp2925
g8
tp2926
Rp2927
(I1
(tg1540
I00
S'\x00\x00\x00\x00'
p2928
tp2929
bag5
(g6
(I0
tp2930
g8
tp2931
Rp2932
(I1
(tg1540
I00
S'\x00\x00\x80?'
p2933
tp2934
bag5
(g6
(I0
tp2935
g8
tp2936
Rp2937
(I1
(tg1540
I00
S'\x00\x00\x80?'
p2938
tp2939
bag5
(g6
(I0
tp2940
g8
tp2941
Rp2942
(I1
(tg1540
I00
S'\x00\x00\x80?'
p2943
tp2944
bag5
(g6
(I0
tp2945
g8
tp2946
Rp2947
(I1
(tg1540
I00
S'\x00\x00\x00\x00'
p2948
tp2949
bag5
(g6
(I0
tp2950
g8
tp2951
Rp2952
(I1
(tg1540
I00
S'\x00\x00\x00\x00'
p2953
tp2954
bag5
(g6
(I0
tp2955
g8
tp2956
Rp2957
(I1
(tg1540
I00
S'\x00\x00\x80?'
p2958
tp2959
bag5
(g6
(I0
tp2960
g8
tp2961
Rp2962
(I1
(tg1540
I00
S'\x00\x00\x80?'
p2963
tp2964
bag5
(g6
(I0
tp2965
g8
tp2966
Rp2967
(I1
(tg1540
I00
S'\x00\x00\x00\x00'
p2968
tp2969
bag5
(g6
(I0
tp2970
g8
tp2971
Rp2972
(I1
(tg1540
I00
S'\x00\x00\x80?'
p2973
tp2974
bag5
(g6
(I0
tp2975
g8
tp2976
Rp2977
(I1
(tg1540
I00
S'\x00\x00\x00\x00'
p2978
tp2979
bag5
(g6
(I0
tp2980
g8
tp2981
Rp2982
(I1
(tg1540
I00
S'\x00\x00\x00\x00'
p2983
tp2984
bag5
(g6
(I0
tp2985
g8
tp2986
Rp2987
(I1
(tg1540
I00
S'\x00\x00\x80?'
p2988
tp2989
bag5
(g6
(I0
tp2990
g8
tp2991
Rp2992
(I1
(tg1540
I00
S'\x00\x00\x80?'
p2993
tp2994
bag5
(g6
(I0
tp2995
g8
tp2996
Rp2997
(I1
(tg1540
I00
S'\x00\x00\x80?'
p2998
tp2999
bag5
(g6
(I0
tp3000
g8
tp3001
Rp3002
(I1
(tg1540
I00
S'\x00\x00\x80?'
p3003
tp3004
bag5
(g6
(I0
tp3005
g8
tp3006
Rp3007
(I1
(tg1540
I00
S'\x00\x00\x80?'
p3008
tp3009
bag5
(g6
(I0
tp3010
g8
tp3011
Rp3012
(I1
(tg1540
I00
S'\x00\x00\x00\x00'
p3013
tp3014
bag5
(g6
(I0
tp3015
g8
tp3016
Rp3017
(I1
(tg1540
I00
S'\x00\x00\x80?'
p3018
tp3019
bag5
(g6
(I0
tp3020
g8
tp3021
Rp3022
(I1
(tg1540
I00
S'\x00\x00\x00\x00'
p3023
tp3024
bag5
(g6
(I0
tp3025
g8
tp3026
Rp3027
(I1
(tg1540
I00
S'\x00\x00\x80?'
p3028
tp3029
bag5
(g6
(I0
tp3030
g8
tp3031
Rp3032
(I1
(tg1540
I00
S'\x00\x00\x80?'
p3033
tp3034
bag5
(g6
(I0
tp3035
g8
tp3036
Rp3037
(I1
(tg1540
I00
S'\x00\x00\x80?'
p3038
tp3039
bag5
(g6
(I0
tp3040
g8
tp3041
Rp3042
(I1
(tg1540
I00
S'\x00\x00\x80?'
p3043
tp3044
bag5
(g6
(I0
tp3045
g8
tp3046
Rp3047
(I1
(tg1540
I00
S'\x00\x00\x80?'
p3048
tp3049
bag5
(g6
(I0
tp3050
g8
tp3051
Rp3052
(I1
(tg1540
I00
S'\x00\x00\x00\x00'
p3053
tp3054
baaatp3055
Rp3056
.