ccollections
OrderedDict
p0
((lp1
(lp2
S'error'
p3
a(lp4
cnumpy.core.multiarray
_reconstruct
p5
(cnumpy
ndarray
p6
(I0
tp7
S'b'
p8
tp9
Rp10
(I1
(tcnumpy
dtype
p11
(S'f8'
p12
I0
I1
tp13
Rp14
(I3
S'<'
p15
NNNI-1
I-1
I0
tp16
bI00
S'\x00\x00\x00\x80\x86\xedqA'
p17
tp18
bag5
(g6
(I0
tp19
g8
tp20
Rp21
(I1
(tg14
I00
S'\x00\x00\x00 )\x11\xbf@'
p22
tp23
bag5
(g6
(I0
tp24
g8
tp25
Rp26
(I1
(tg14
I00
S'\x00\x00\x00\xc0\x97\x12\xe6?'
p27
tp28
bag5
(g6
(I0
tp29
g8
tp30
Rp31
(I1
(tg14
I00
S'\x00\x00\x00\x00\xd8\x01\xde='
p32
tp33
bag5
(g6
(I0
tp34
g8
tp35
Rp36
(I1
(tg14
I00
S'\x00\x00\x00\x00\x00\x00\x00\x80'
p37
tp38
bag5
(g6
(I0
tp39
g8
tp40
Rp41
(I1
(tg14
I00
S'\x00\x00\x00\x00\x00\x00\x00\x80'
p42
tp43
bag5
(g6
(I0
tp44
g8
tp45
Rp46
(I1
(tg14
I00
S'\x00\x00\x00\x80lV\xe6?'
p47
tp48
bag5
(g6
(I0
tp49
g8
tp50
Rp51
(I1
(tg14
I00
S'\x00\x00\x00\x00\x00\x00\x00\x80'
p52
tp53
bag5
(g6
(I0
tp54
g8
tp55
Rp56
(I1
(tg14
I00
S'\x00\x00\x00\xc0Q)\xe6?'
p57
tp58
bag5
(g6
(I0
tp59
g8
tp60
Rp61
(I1
(tg14
I00
S'\x00\x00\x00\xa0\xd3*\xe6?'
p62
tp63
bag5
(g6
(I0
tp64
g8
tp65
Rp66
(I1
(tg14
I00
S'\x00\x00\x00`\xc7.\xe6?'
p67
tp68
bag5
(g6
(I0
tp69
g8
tp70
Rp71
(I1
(tg14
I00
S'\x00\x00\x00\xa0\xb1G\xe6?'
p72
tp73
bag5
(g6
(I0
tp74
g8
tp75
Rp76
(I1
(tg14
I00
S'\x00\x00\x00 \xdd_\xe6?'
p77
tp78
bag5
(g6
(I0
tp79
g8
tp80
Rp81
(I1
(tg14
I00
S'\x00\x00\x00 \xf6R\xe6?'
p82
tp83
bag5
(g6
(I0
tp84
g8
tp85
Rp86
(I1
(tg14
I00
S'\x00\x00\x00`\xbfY\xe6?'
p87
tp88
bag5
(g6
(I0
tp89
g8
tp90
Rp91
(I1
(tg14
I00
S'\x00\x00\x00\x00\x00@\x12='
p92
tp93
bag5
(g6
(I0
tp94
g8
tp95
Rp96
(I1
(tg14
I00
S'\x00\x00\x00`wk\xe6?'
p97
tp98
bag5
(g6
(I0
tp99
g8
tp100
Rp101
(I1
(tg14
I00
S'\x00\x00\x00\xc0\x88]\xe6?'
p102
tp103
bag5
(g6
(I0
tp104
g8
tp105
Rp106
(I1
(tg14
I00
S'\x00\x00\x00\x00Jr\xe6?'
p107
tp108
bag5
(g6
(I0
tp109
g8
tp110
Rp111
(I1
(tg14
I00
S'\x00\x00\x00\x00\x00\x00\x00\x80'
p112
tp113
bag5
(g6
(I0
tp114
g8
tp115
Rp116
(I1
(tg14
I00
S'\x00\x00\x00\x807t\xe6?'
p117
tp118
bag5
(g6
(I0
tp119
g8
tp120
Rp121
(I1
(tg14
I00
S'\x00\x00\x00 \xa9\x8e\xe6?'
p122
tp123
bag5
(g6
(I0
tp124
g8
tp125
Rp126
(I1
(tg14
I00
S'\x00\x00\x00@\x82\xcd\xe5?'
p127
tp128
bag5
(g6
(I0
tp129
g8
tp130
Rp131
(I1
(tg14
I00
S'\x00\x00\x00\xc0\xca\xbc\x80@'
p132
tp133
bag5
(g6
(I0
tp134
g8
tp135
Rp136
(I1
(tg14
I00
S'\x00\x00\x00`s\xb1\xe6?'
p137
tp138
bag5
(g6
(I0
tp139
g8
tp140
Rp141
(I1
(tg14
I00
S'\x00\x00\x00\xe0\x9f\xbd\xe6?'
p142
tp143
bag5
(g6
(I0
tp144
g8
tp145
Rp146
(I1
(tg14
I00
S'\x00\x00\x00\xe0B\x9a\xe5?'
p147
tp148
bag5
(g6
(I0
tp149
g8
tp150
Rp151
(I1
(tg14
I00
S'\x00\x00\x00\x00\x00\x00\x00\x80'
p152
tp153
bag5
(g6
(I0
tp154
g8
tp155
Rp156
(I1
(tg14
I00
S'\x00\x00\x00\x00\x00\x00\x00\x80'
p157
tp158
bag5
(g6
(I0
tp159
g8
tp160
Rp161
(I1
(tg14
I00
S'\x00\x00\x00\xc0\xa7\xe3\xe6?'
p162
tp163
bag5
(g6
(I0
tp164
g8
tp165
Rp166
(I1
(tg14
I00
S'\x00\x00\x00 \x05o\xe5?'
p167
tp168
bag5
(g6
(I0
tp169
g8
tp170
Rp171
(I1
(tg14
I00
S'\x00\x00\x00\xe0\x1bs\xe5?'
p172
tp173
bag5
(g6
(I0
tp174
g8
tp175
Rp176
(I1
(tg14
I00
S'\x00\x00\x00\xe0\\\xc0(?'
p177
tp178
bag5
(g6
(I0
tp179
g8
tp180
Rp181
(I1
(tg14
I00
S'\x00\x00\x00\xa0}\xfd\xe6?'
p182
tp183
bag5
(g6
(I0
tp184
g8
tp185
Rp186
(I1
(tg14
I00
S'\x00\x00\x00\x80\xb9\x01\xe7?'
p187
tp188
bag5
(g6
(I0
tp189
g8
tp190
Rp191
(I1
(tg14
I00
S'\x00\x00\x00@\xc5\\\xe5?'
p192
tp193
bag5
(g6
(I0
tp194
g8
tp195
Rp196
(I1
(tg14
I00
S'\x00\x00\x00@\xad\x1c\xe7?'
p197
tp198
bag5
(g6
(I0
tp199
g8
tp200
Rp201
(I1
(tg14
I00
S'\x00\x00\x00\xc0\x9d\x81\xf2?'
p202
tp203
bag5
(g6
(I0
tp204
g8
tp205
Rp206
(I1
(tg14
I00
S'\x00\x00\x00@\xc9\xbd\x80@'
p207
tp208
bag5
(g6
(I0
tp209
g8
tp210
Rp211
(I1
(tg14
I00
S'\x00\x00\x00\x80\x7f=\xe7?'
p212
tp213
bag5
(g6
(I0
tp214
g8
tp215
Rp216
(I1
(tg14
I00
S'\x00\x00\x00\x00\x00\x00\x00\x80'
p217
tp218
bag5
(g6
(I0
tp219
g8
tp220
Rp221
(I1
(tg14
I00
S'\x00\x00\x00\xa0\xd7\xc1)@'
p222
tp223
bag5
(g6
(I0
tp224
g8
tp225
Rp226
(I1
(tg14
I00
S'\x00\x00\x00\x00\xb1\xeb\xe4?'
p227
tp228
bag5
(g6
(I0
tp229
g8
tp230
Rp231
(I1
(tg14
I00
S"\x00\x00\x00@e\x0e'@"
p232
tp233
bag5
(g6
(I0
tp234
g8
tp235
Rp236
(I1
(tg14
I00
S'\x00\x00\x00\xa0y\xde\xe4?'
p237
tp238
bag5
(g6
(I0
tp239
g8
tp240
Rp241
(I1
(tg14
I00
S'\x00\x00\x00`D\xda\xe4?'
p242
tp243
bag5
(g6
(I0
tp244
g8
tp245
Rp246
(I1
(tg14
I00
S'\x00\x00\x00\x80o\x92\xe7?'
p247
tp248
bag5
(g6
(I0
tp249
g8
tp250
Rp251
(I1
(tg14
I00
S'\x00\x00\x00\xa0p\xd0\xe4?'
p252
tp253
bag5
(g6
(I0
tp254
g8
tp255
Rp256
(I1
(tg14
I00
S'\x00\x00\x00\xa0{f2@'
p257
tp258
bag5
(g6
(I0
tp259
g8
tp260
Rp261
(I1
(tg14
I00
S'\x00\x00\x00@\xa1\xb9\xe4?'
p262
tp263
bag5
(g6
(I0
tp264
g8
tp265
Rp266
(I1
(tg14
I00
S'\x00\x00\x00\xc0\x93\xc9\xe7?'
p267
tp268
bag5
(g6
(I0
tp269
g8
tp270
Rp271
(I1
(tg14
I00
S'\x00\x00\x00\xa0\xc8\xd2\xe7?'
p272
tp273
bag5
(g6
(I0
tp274
g8
tp275
Rp276
(I1
(tg14
I00
S'\x00\x00\x00\x00e\xd6\xe7?'
p277
tp278
bag5
(g6
(I0
tp279
g8
tp280
Rp281
(I1
(tg14
I00
S'\x00\x00\x00@\xc8\xf8\xe7?'
p282
tp283
bag5
(g6
(I0
tp284
g8
tp285
Rp286
(I1
(tg14
I00
S'\x00\x00\x00\x80\xdf\xbf\x80@'
p287
tp288
bag5
(g6
(I0
tp289
g8
tp290
Rp291
(I1
(tg14
I00
S'\x00\x00\x00@\xdbQ\xe4?'
p292
tp293
bag5
(g6
(I0
tp294
g8
tp295
Rp296
(I1
(tg14
I00
S'\x00\x00\x00`\xbeY\xe4?'
p297
tp298
bag5
(g6
(I0
tp299
g8
tp300
Rp301
(I1
(tg14
I00
S'\x00\x00\x00\xa0\xc2d\xe4?'
p302
tp303
bag5
(g6
(I0
tp304
g8
tp305
Rp306
(I1
(tg14
I00
S'\x00\x00\x00\x00\x00\x00\x00\x80'
p307
tp308
bag5
(g6
(I0
tp309
g8
tp310
Rp311
(I1
(tg14
I00
S'\x00\x00\x00@\xf7\x94\x1f?'
p312
tp313
bag5
(g6
(I0
tp314
g8
tp315
Rp316
(I1
(tg14
I00
S'\x00\x00\x00\xc0\x17)\xe8?'
p317
tp318
bag5
(g6
(I0
tp319
g8
tp320
Rp321
(I1
(tg14
I00
S'\x00\x00\x00\x00\x00\x00\x00\x80'
p322
tp323
bag5
(g6
(I0
tp324
g8
tp325
Rp326
(I1
(tg14
I00
S'\x00\x00\x00\xc0\xa4\x02\xe8?'
p327
tp328
bag5
(g6
(I0
tp329
g8
tp330
Rp331
(I1
(tg14
I00
S'\x00\x00\x00\x00\x00\x00\x00\x80'
p332
tp333
bag5
(g6
(I0
tp334
g8
tp335
Rp336
(I1
(tg14
I00
S'\x00\x00\x00\x00!U\xe4?'
p337
tp338
bag5
(g6
(I0
tp339
g8
tp340
Rp341
(I1
(tg14
I00
S'\x00\x00\x00\x00\x00\x10l='
p342
tp343
bag5
(g6
(I0
tp344
g8
tp345
Rp346
(I1
(tg14
I00
S'\x00\x00\x00\x80\xa64\xe8?'
p347
tp348
bag5
(g6
(I0
tp349
g8
tp350
Rp351
(I1
(tg14
I00
S'\x00\x00\x00\xa0\xed`\xe8?'
p352
tp353
bag5
(g6
(I0
tp354
g8
tp355
Rp356
(I1
(tg14
I00
S'\x00\x00\x00\xe0^\x06\xe4?'
p357
tp358
bag5
(g6
(I0
tp359
g8
tp360
Rp361
(I1
(tg14
I00
S'\x00\x00\x00\x00\x1b\x00\xe4?'
p362
tp363
bag5
(g6
(I0
tp364
g8
tp365
Rp366
(I1
(tg14
I00
S'\x00\x00\x00`\x0e\xf1\xe3?'
p367
tp368
bag5
(g6
(I0
tp369
g8
tp370
Rp371
(I1
(tg14
I00
S'\x00\x00\x00\x80\xa1\xe4\xe3?'
p372
tp373
bag5
(g6
(I0
tp374
g8
tp375
Rp376
(I1
(tg14
I00
S'\x00\x00\x00\x00\xea\x98\xe8?'
p377
tp378
bag5
(g6
(I0
tp379
g8
tp380
Rp381
(I1
(tg14
I00
S'\x00\x00\x00\x00\x00\x00\x00\x80'
p382
tp383
bag5
(g6
(I0
tp384
g8
tp385
Rp386
(I1
(tg14
I00
S'\x00\x00\x00\xa05\xb4\xe8?'
p387
tp388
bag5
(g6
(I0
tp389
g8
tp390
Rp391
(I1
(tg14
I00
S'\x00\x00\x00@Y\xc9\xe8?'
p392
tp393
bag5
(g6
(I0
tp394
g8
tp395
Rp396
(I1
(tg14
I00
S'\x00\x00\x00\x00\x00\x00\x00\x80'
p397
tp398
bag5
(g6
(I0
tp399
g8
tp400
Rp401
(I1
(tg14
I00
S'\x00\x00\x00 \xb3\x88\xf6?'
p402
tp403
bag5
(g6
(I0
tp404
g8
tp405
Rp406
(I1
(tg14
I00
S'\x00\x00\x00`\x03\xad\xe8?'
p407
tp408
bag5
(g6
(I0
tp409
g8
tp410
Rp411
(I1
(tg14
I00
S'\x00\x00\x00\x00\x00\x00\x00\x80'
p412
tp413
bag5
(g6
(I0
tp414
g8
tp415
Rp416
(I1
(tg14
I00
S'\x00\x00\x00@T\xd0\x80@'
p417
tp418
bag5
(g6
(I0
tp419
g8
tp420
Rp421
(I1
(tg14
I00
S'\x00\x00\x00\x80a\x13\xe9?'
p422
tp423
bag5
(g6
(I0
tp424
g8
tp425
Rp426
(I1
(tg14
I00
S'\x00\x00\x00 c\x8f\xf3?'
p427
tp428
bag5
(g6
(I0
tp429
g8
tp430
Rp431
(I1
(tg14
I00
S'\x00\x00\x00@\xc55\xe9?'
p432
tp433
bag5
(g6
(I0
tp434
g8
tp435
Rp436
(I1
(tg14
I00
S'\x00\x00\x00\x80\x9a\xd4\x80@'
p437
tp438
bag5
(g6
(I0
tp439
g8
tp440
Rp441
(I1
(tg14
I00
S'\x00\x00\x00\xe0\x14j\xe3?'
p442
tp443
bag5
(g6
(I0
tp444
g8
tp445
Rp446
(I1
(tg14
I00
S'\x00\x00\x00\xe0Ch\xe3?'
p447
tp448
bag5
(g6
(I0
tp449
g8
tp450
Rp451
(I1
(tg14
I00
S'\x00\x00\x00 \xaaB\xe9?'
p452
tp453
bag5
(g6
(I0
tp454
g8
tp455
Rp456
(I1
(tg14
I00
S'\x00\x00\x00\xa0\xfca\xe3?'
p457
tp458
bag5
(g6
(I0
tp459
g8
tp460
Rp461
(I1
(tg14
I00
S'\x00\x00\x00\xc0Z?\xe9?'
p462
tp463
bag5
(g6
(I0
tp464
g8
tp465
Rp466
(I1
(tg14
I00
S'\x00\x00\x00@`g\xe3?'
p467
tp468
bag5
(g6
(I0
tp469
g8
tp470
Rp471
(I1
(tg14
I00
S'\x00\x00\x00\x80S0\xe9?'
p472
tp473
bag5
(g6
(I0
tp474
g8
tp475
Rp476
(I1
(tg14
I00
S'\x00\x00\x00\xa0i:\xe9?'
p477
tp478
bag5
(g6
(I0
tp479
g8
tp480
Rp481
(I1
(tg14
I00
S'\x00\x00\x00\x00\x00\x00\x00\x80'
p482
tp483
bag5
(g6
(I0
tp484
g8
tp485
Rp486
(I1
(tg14
I00
S'\x00\x00\x00\x80\r]\xe3?'
p487
tp488
bag5
(g6
(I0
tp489
g8
tp490
Rp491
(I1
(tg14
I00
S'\x00\x00\x00\x80|Y\xe3?'
p492
tp493
baaa(lp494
S'iteration'
p495
a(lp496
I0
aI1
aI2
aI3
aI4
aI5
aI6
aI7
aI8
aI9
aI10
aI11
aI12
aI13
aI14
aI15
aI16
aI17
aI18
aI19
aI20
aI21
aI22
aI23
aI24
aI25
aI26
aI27
aI28
aI29
aI30
aI31
aI32
aI33
aI34
aI35
aI36
aI37
aI38
aI39
aI40
aI41
aI42
aI43
aI44
aI45
aI46
aI47
aI48
aI49
aI50
aI51
aI52
aI53
aI54
aI55
aI56
aI57
aI58
aI59
aI60
aI61
aI62
aI63
aI64
aI65
aI66
aI67
aI68
aI69
aI70
aI71
aI72
aI73
aI74
aI75
aI76
aI77
aI78
aI79
aI80
aI81
aI82
aI83
aI84
aI85
aI86
aI87
aI88
aI89
aI90
aI91
aI92
aI93
aI94
aI95
aaa(lp497
S'accuracy'
p498
a(lp499
g5
(g6
(I0
tp500
g8
tp501
Rp502
(I1
(tg11
(S'f4'
p503
I0
I1
tp504
Rp505
(I3
S'<'
p506
NNNI-1
I-1
I0
tp507
bI00
S'\x00\x00\x00\x00'
p508
tp509
bag5
(g6
(I0
tp510
g8
tp511
Rp512
(I1
(tg505
I00
S'\x00\x00\x00\x00'
p513
tp514
bag5
(g6
(I0
tp515
g8
tp516
Rp517
(I1
(tg505
I00
S'\x00\x00\x80?'
p518
tp519
bag5
(g6
(I0
tp520
g8
tp521
Rp522
(I1
(tg505
I00
S'\x00\x00\x80?'
p523
tp524
bag5
(g6
(I0
tp525
g8
tp526
Rp527
(I1
(tg505
I00
S'\x00\x00\x80?'
p528
tp529
bag5
(g6
(I0
tp530
g8
tp531
Rp532
(I1
(tg505
I00
S'\x00\x00\x80?'
p533
tp534
bag5
(g6
(I0
tp535
g8
tp536
Rp537
(I1
(tg505
I00
S'\x00\x00\x00\x00'
p538
tp539
bag5
(g6
(I0
tp540
g8
tp541
Rp542
(I1
(tg505
I00
S'\x00\x00\x80?'
p543
tp544
bag5
(g6
(I0
tp545
g8
tp546
Rp547
(I1
(tg505
I00
S'\x00\x00\x80?'
p548
tp549
bag5
(g6
(I0
tp550
g8
tp551
Rp552
(I1
(tg505
I00
S'\x00\x00\x80?'
p553
tp554
bag5
(g6
(I0
tp555
g8
tp556
Rp557
(I1
(tg505
I00
S'\x00\x00\x00\x00'
p558
tp559
bag5
(g6
(I0
tp560
g8
tp561
Rp562
(I1
(tg505
I00
S'\x00\x00\x00\x00'
p563
tp564
bag5
(g6
(I0
tp565
g8
tp566
Rp567
(I1
(tg505
I00
S'\x00\x00\x00\x00'
p568
tp569
bag5
(g6
(I0
tp570
g8
tp571
Rp572
(I1
(tg505
I00
S'\x00\x00\x00\x00'
p573
tp574
bag5
(g6
(I0
tp575
g8
tp576
Rp577
(I1
(tg505
I00
S'\x00\x00\x00\x00'
p578
tp579
bag5
(g6
(I0
tp580
g8
tp581
Rp582
(I1
(tg505
I00
S'\x00\x00\x80?'
p583
tp584
bag5
(g6
(I0
tp585
g8
tp586
Rp587
(I1
(tg505
I00
S'\x00\x00\x00\x00'
p588
tp589
bag5
(g6
(I0
tp590
g8
tp591
Rp592
(I1
(tg505
I00
S'\x00\x00\x00\x00'
p593
tp594
bag5
(g6
(I0
tp595
g8
tp596
Rp597
(I1
(tg505
I00
S'\x00\x00\x00\x00'
p598
tp599
bag5
(g6
(I0
tp600
g8
tp601
Rp602
(I1
(tg505
I00
S'\x00\x00\x80?'
p603
tp604
bag5
(g6
(I0
tp605
g8
tp606
Rp607
(I1
(tg505
I00
S'\x00\x00\x00\x00'
p608
tp609
bag5
(g6
(I0
tp610
g8
tp611
Rp612
(I1
(tg505
I00
S'\x00\x00\x00\x00'
p613
tp614
bag5
(g6
(I0
tp615
g8
tp616
Rp617
(I1
(tg505
I00
S'\x00\x00\x80?'
p618
tp619
bag5
(g6
(I0
tp620
g8
tp621
Rp622
(I1
(tg505
I00
S'\x00\x00\x00\x00'
p623
tp624
bag5
(g6
(I0
tp625
g8
tp626
Rp627
(I1
(tg505
I00
S'\x00\x00\x00\x00'
p628
tp629
bag5
(g6
(I0
tp630
g8
tp631
Rp632
(I1
(tg505
I00
S'\x00\x00\x00\x00'
p633
tp634
bag5
(g6
(I0
tp635
g8
tp636
Rp637
(I1
(tg505
I00
S'\x00\x00\x80?'
p638
tp639
bag5
(g6
(I0
tp640
g8
tp641
Rp642
(I1
(tg505
I00
S'\x00\x00\x80?'
p643
tp644
bag5
(g6
(I0
tp645
g8
tp646
Rp647
(I1
(tg505
I00
S'\x00\x00\x80?'
p648
tp649
bag5
(g6
(I0
tp650
g8
tp651
Rp652
(I1
(tg505
I00
S'\x00\x00\x00\x00'
p653
tp654
bag5
(g6
(I0
tp655
g8
tp656
Rp657
(I1
(tg505
I00
S'\x00\x00\x80?'
p658
tp659
bag5
(g6
(I0
tp660
g8
tp661
Rp662
(I1
(tg505
I00
S'\x00\x00\x80?'
p663
tp664
bag5
(g6
(I0
tp665
g8
tp666
Rp667
(I1
(tg505
I00
S'\x00\x00\x80?'
p668
tp669
bag5
(g6
(I0
tp670
g8
tp671
Rp672
(I1
(tg505
I00
S'\x00\x00\x00\x00'
p673
tp674
bag5
(g6
(I0
tp675
g8
tp676
Rp677
(I1
(tg505
I00
S'\x00\x00\x00\x00'
p678
tp679
bag5
(g6
(I0
tp680
g8
tp681
Rp682
(I1
(tg505
I00
S'\x00\x00\x80?'
p683
tp684
bag5
(g6
(I0
tp685
g8
tp686
Rp687
(I1
(tg505
I00
S'\x00\x00\x00\x00'
p688
tp689
bag5
(g6
(I0
tp690
g8
tp691
Rp692
(I1
(tg505
I00
S'\x00\x00\x00\x00'
p693
tp694
bag5
(g6
(I0
tp695
g8
tp696
Rp697
(I1
(tg505
I00
S'\x00\x00\x00\x00'
p698
tp699
bag5
(g6
(I0
tp700
g8
tp701
Rp702
(I1
(tg505
I00
S'\x00\x00\x00\x00'
p703
tp704
bag5
(g6
(I0
tp705
g8
tp706
Rp707
(I1
(tg505
I00
S'\x00\x00\x80?'
p708
tp709
bag5
(g6
(I0
tp710
g8
tp711
Rp712
(I1
(tg505
I00
S'\x00\x00\x00\x00'
p713
tp714
bag5
(g6
(I0
tp715
g8
tp716
Rp717
(I1
(tg505
I00
S'\x00\x00\x80?'
p718
tp719
bag5
(g6
(I0
tp720
g8
tp721
Rp722
(I1
(tg505
I00
S'\x00\x00\x00\x00'
p723
tp724
bag5
(g6
(I0
tp725
g8
tp726
Rp727
(I1
(tg505
I00
S'\x00\x00\x80?'
p728
tp729
bag5
(g6
(I0
tp730
g8
tp731
Rp732
(I1
(tg505
I00
S'\x00\x00\x80?'
p733
tp734
bag5
(g6
(I0
tp735
g8
tp736
Rp737
(I1
(tg505
I00
S'\x00\x00\x00\x00'
p738
tp739
bag5
(g6
(I0
tp740
g8
tp741
Rp742
(I1
(tg505
I00
S'\x00\x00\x80?'
p743
tp744
bag5
(g6
(I0
tp745
g8
tp746
Rp747
(I1
(tg505
I00
S'\x00\x00\x00\x00'
p748
tp749
bag5
(g6
(I0
tp750
g8
tp751
Rp752
(I1
(tg505
I00
S'\x00\x00\x80?'
p753
tp754
bag5
(g6
(I0
tp755
g8
tp756
Rp757
(I1
(tg505
I00
S'\x00\x00\x00\x00'
p758
tp759
bag5
(g6
(I0
tp760
g8
tp761
Rp762
(I1
(tg505
I00
S'\x00\x00\x00\x00'
p763
tp764
bag5
(g6
(I0
tp765
g8
tp766
Rp767
(I1
(tg505
I00
S'\x00\x00\x00\x00'
p768
tp769
bag5
(g6
(I0
tp770
g8
tp771
Rp772
(I1
(tg505
I00
S'\x00\x00\x00\x00'
p773
tp774
bag5
(g6
(I0
tp775
g8
tp776
Rp777
(I1
(tg505
I00
S'\x00\x00\x00\x00'
p778
tp779
bag5
(g6
(I0
tp780
g8
tp781
Rp782
(I1
(tg505
I00
S'\x00\x00\x80?'
p783
tp784
bag5
(g6
(I0
tp785
g8
tp786
Rp787
(I1
(tg505
I00
S'\x00\x00\x80?'
p788
tp789
bag5
(g6
(I0
tp790
g8
tp791
Rp792
(I1
(tg505
I00
S'\x00\x00\x80?'
p793
tp794
bag5
(g6
(I0
tp795
g8
tp796
Rp797
(I1
(tg505
I00
S'\x00\x00\x80?'
p798
tp799
bag5
(g6
(I0
tp800
g8
tp801
Rp802
(I1
(tg505
I00
S'\x00\x00\x80?'
p803
tp804
bag5
(g6
(I0
tp805
g8
tp806
Rp807
(I1
(tg505
I00
S'\x00\x00\x00\x00'
p808
tp809
bag5
(g6
(I0
tp810
g8
tp811
Rp812
(I1
(tg505
I00
S'\x00\x00\x80?'
p813
tp814
bag5
(g6
(I0
tp815
g8
tp816
Rp817
(I1
(tg505
I00
S'\x00\x00\x00\x00'
p818
tp819
bag5
(g6
(I0
tp820
g8
tp821
Rp822
(I1
(tg505
I00
S'\x00\x00\x80?'
p823
tp824
bag5
(g6
(I0
tp825
g8
tp826
Rp827
(I1
(tg505
I00
S'\x00\x00\x80?'
p828
tp829
bag5
(g6
(I0
tp830
g8
tp831
Rp832
(I1
(tg505
I00
S'\x00\x00\x80?'
p833
tp834
bag5
(g6
(I0
tp835
g8
tp836
Rp837
(I1
(tg505
I00
S'\x00\x00\x00\x00'
p838
tp839
bag5
(g6
(I0
tp840
g8
tp841
Rp842
(I1
(tg505
I00
S'\x00\x00\x00\x00'
p843
tp844
bag5
(g6
(I0
tp845
g8
tp846
Rp847
(I1
(tg505
I00
S'\x00\x00\x80?'
p848
tp849
bag5
(g6
(I0
tp850
g8
tp851
Rp852
(I1
(tg505
I00
S'\x00\x00\x80?'
p853
tp854
bag5
(g6
(I0
tp855
g8
tp856
Rp857
(I1
(tg505
I00
S'\x00\x00\x80?'
p858
tp859
bag5
(g6
(I0
tp860
g8
tp861
Rp862
(I1
(tg505
I00
S'\x00\x00\x80?'
p863
tp864
bag5
(g6
(I0
tp865
g8
tp866
Rp867
(I1
(tg505
I00
S'\x00\x00\x00\x00'
p868
tp869
bag5
(g6
(I0
tp870
g8
tp871
Rp872
(I1
(tg505
I00
S'\x00\x00\x80?'
p873
tp874
bag5
(g6
(I0
tp875
g8
tp876
Rp877
(I1
(tg505
I00
S'\x00\x00\x00\x00'
p878
tp879
bag5
(g6
(I0
tp880
g8
tp881
Rp882
(I1
(tg505
I00
S'\x00\x00\x00\x00'
p883
tp884
bag5
(g6
(I0
tp885
g8
tp886
Rp887
(I1
(tg505
I00
S'\x00\x00\x80?'
p888
tp889
bag5
(g6
(I0
tp890
g8
tp891
Rp892
(I1
(tg505
I00
S'\x00\x00\x00\x00'
p893
tp894
bag5
(g6
(I0
tp895
g8
tp896
Rp897
(I1
(tg505
I00
S'\x00\x00\x00\x00'
p898
tp899
bag5
(g6
(I0
tp900
g8
tp901
Rp902
(I1
(tg505
I00
S'\x00\x00\x80?'
p903
tp904
bag5
(g6
(I0
tp905
g8
tp906
Rp907
(I1
(tg505
I00
S'\x00\x00\x00\x00'
p908
tp909
bag5
(g6
(I0
tp910
g8
tp911
Rp912
(I1
(tg505
I00
S'\x00\x00\x00\x00'
p913
tp914
bag5
(g6
(I0
tp915
g8
tp916
Rp917
(I1
(tg505
I00
S'\x00\x00\x00\x00'
p918
tp919
bag5
(g6
(I0
tp920
g8
tp921
Rp922
(I1
(tg505
I00
S'\x00\x00\x00\x00'
p923
tp924
bag5
(g6
(I0
tp925
g8
tp926
Rp927
(I1
(tg505
I00
S'\x00\x00\x00\x00'
p928
tp929
bag5
(g6
(I0
tp930
g8
tp931
Rp932
(I1
(tg505
I00
S'\x00\x00\x80?'
p933
tp934
bag5
(g6
(I0
tp935
g8
tp936
Rp937
(I1
(tg505
I00
S'\x00\x00\x80?'
p938
tp939
bag5
(g6
(I0
tp940
g8
tp941
Rp942
(I1
(tg505
I00
S'\x00\x00\x00\x00'
p943
tp944
bag5
(g6
(I0
tp945
g8
tp946
Rp947
(I1
(tg505
I00
S'\x00\x00\x80?'
p948
tp949
bag5
(g6
(I0
tp950
g8
tp951
Rp952
(I1
(tg505
I00
S'\x00\x00\x00\x00'
p953
tp954
bag5
(g6
(I0
tp955
g8
tp956
Rp957
(I1
(tg505
I00
S'\x00\x00\x80?'
p958
tp959
bag5
(g6
(I0
tp960
g8
tp961
Rp962
(I1
(tg505
I00
S'\x00\x00\x00\x00'
p963
tp964
bag5
(g6
(I0
tp965
g8
tp966
Rp967
(I1
(tg505
I00
S'\x00\x00\x00\x00'
p968
tp969
bag5
(g6
(I0
tp970
g8
tp971
Rp972
(I1
(tg505
I00
S'\x00\x00\x80?'
p973
tp974
bag5
(g6
(I0
tp975
g8
tp976
Rp977
(I1
(tg505
I00
S'\x00\x00\x80?'
p978
tp979
bag5
(g6
(I0
tp980
g8
tp981
Rp982
(I1
(tg505
I00
S'\x00\x00\x80?'
p983
tp984
baaatp985
Rp986
.