ccollections
OrderedDict
p0
((lp1
(lp2
S'error'
p3
a(lp4
cnumpy.core.multiarray
_reconstruct
p5
(cnumpy
ndarray
p6
(I0
tp7
S'b'
p8
tp9
Rp10
(I1
(tcnumpy
dtype
p11
(S'f8'
p12
I0
I1
tp13
Rp14
(I3
S'<'
p15
NNNI-1
I-1
I0
tp16
bI00
S'\x00\x00\x00\x00\x00\x00\x00\x80'
p17
tp18
bag5
(g6
(I0
tp19
g8
tp20
Rp21
(I1
(tg14
I00
S'\x00\x00\x00\xc02\xb4\xe0@'
p22
tp23
bag5
(g6
(I0
tp24
g8
tp25
Rp26
(I1
(tg14
I00
S'\x00\x00\x00\xc0\xd2\xb7\xd8@'
p27
tp28
bag5
(g6
(I0
tp29
g8
tp30
Rp31
(I1
(tg14
I00
S'\x00\x00\x00\x00\x00\x00\x00\x80'
p32
tp33
bag5
(g6
(I0
tp34
g8
tp35
Rp36
(I1
(tg14
I00
S'\x00\x00\x00\x00\x00\x00\x00\x80'
p37
tp38
bag5
(g6
(I0
tp39
g8
tp40
Rp41
(I1
(tg14
I00
S'\x00\x00\x00\x00\x00\x00\x00\x80'
p42
tp43
bag5
(g6
(I0
tp44
g8
tp45
Rp46
(I1
(tg14
I00
S'\x00\x00\x00\x00\x00\x00\x00\x80'
p47
tp48
bag5
(g6
(I0
tp49
g8
tp50
Rp51
(I1
(tg14
I00
S'\x00\x00\x00\xc0<\xede@'
p52
tp53
baaa(lp54
S'iteration'
p55
a(lp56
I0
aI1
aI2
aI3
aI4
aI5
aI6
aI7
aaa(lp57
S'accuracy'
p58
a(lp59
g5
(g6
(I0
tp60
g8
tp61
Rp62
(I1
(tg11
(S'f4'
p63
I0
I1
tp64
Rp65
(I3
S'<'
p66
NNNI-1
I-1
I0
tp67
bI00
S'\x00\x00\x80?'
p68
tp69
bag5
(g6
(I0
tp70
g8
tp71
Rp72
(I1
(tg65
I00
S'\x00\x00\x00\x00'
p73
tp74
bag5
(g6
(I0
tp75
g8
tp76
Rp77
(I1
(tg65
I00
S'\x00\x00\x00\x00'
p78
tp79
bag5
(g6
(I0
tp80
g8
tp81
Rp82
(I1
(tg65
I00
S'\x00\x00\x80?'
p83
tp84
bag5
(g6
(I0
tp85
g8
tp86
Rp87
(I1
(tg65
I00
S'\x00\x00\x80?'
p88
tp89
bag5
(g6
(I0
tp90
g8
tp91
Rp92
(I1
(tg65
I00
S'\x00\x00\x80?'
p93
tp94
bag5
(g6
(I0
tp95
g8
tp96
Rp97
(I1
(tg65
I00
S'\x00\x00\x80?'
p98
tp99
bag5
(g6
(I0
tp100
g8
tp101
Rp102
(I1
(tg65
I00
S'\x00\x00\x00\x00'
p103
tp104
baaatp105
Rp106
.