ccollections
OrderedDict
p0
((lp1
(lp2
S'error'
p3
a(lp4
cnumpy.core.multiarray
_reconstruct
p5
(cnumpy
ndarray
p6
(I0
tp7
S'b'
p8
tp9
Rp10
(I1
(tcnumpy
dtype
p11
(S'f8'
p12
I0
I1
tp13
Rp14
(I3
S'<'
p15
NNNI-1
I-1
I0
tp16
bI00
S'\x00\x00\x00\x80\xb2\x81aA'
p17
tp18
bag5
(g6
(I0
tp19
g8
tp20
Rp21
(I1
(tg14
I00
S'\x00\x00\x00\x80.\x88\xb4@'
p22
tp23
bag5
(g6
(I0
tp24
g8
tp25
Rp26
(I1
(tg14
I00
S'\x00\x00\x00`\x85{\xcd@'
p27
tp28
bag5
(g6
(I0
tp29
g8
tp30
Rp31
(I1
(tg14
I00
S'\x00\x00\x00\xc0\xc3\xac\xd2@'
p32
tp33
bag5
(g6
(I0
tp34
g8
tp35
Rp36
(I1
(tg14
I00
S'\x00\x00\x00\x80:\xb0@@'
p37
tp38
bag5
(g6
(I0
tp39
g8
tp40
Rp41
(I1
(tg14
I00
S'\x00\x00\x00\x00\x00\x00\x00\x80'
p42
tp43
bag5
(g6
(I0
tp44
g8
tp45
Rp46
(I1
(tg14
I00
S'\x00\x00\x00\x00\x00D\xa2>'
p47
tp48
bag5
(g6
(I0
tp49
g8
tp50
Rp51
(I1
(tg14
I00
S'\x00\x00\x00 \xce\xb3l@'
p52
tp53
bag5
(g6
(I0
tp54
g8
tp55
Rp56
(I1
(tg14
I00
S'\x00\x00\x00\x00\x00\x00\x00\x80'
p57
tp58
bag5
(g6
(I0
tp59
g8
tp60
Rp61
(I1
(tg14
I00
S'\x00\x00\x00\x00\x00\x00\x00\x80'
p62
tp63
bag5
(g6
(I0
tp64
g8
tp65
Rp66
(I1
(tg14
I00
S'\x00\x00\x00\x00\x00\x00\x00\x80'
p67
tp68
bag5
(g6
(I0
tp69
g8
tp70
Rp71
(I1
(tg14
I00
S'\x00\x00\x00\xc0\x18\xa8\xb0@'
p72
tp73
bag5
(g6
(I0
tp74
g8
tp75
Rp76
(I1
(tg14
I00
S'\x00\x00\x00`k\xbd6@'
p77
tp78
bag5
(g6
(I0
tp79
g8
tp80
Rp81
(I1
(tg14
I00
S'\x00\x00\x00\x00\x00\x00\x00\x80'
p82
tp83
bag5
(g6
(I0
tp84
g8
tp85
Rp86
(I1
(tg14
I00
S'\x00\x00\x00\x00\x00\x00\x00\x80'
p87
tp88
bag5
(g6
(I0
tp89
g8
tp90
Rp91
(I1
(tg14
I00
S'\x00\x00\x00\x00\xfe%\x16@'
p92
tp93
bag5
(g6
(I0
tp94
g8
tp95
Rp96
(I1
(tg14
I00
S'\x00\x00\x00@\x02\xd2\x89@'
p97
tp98
bag5
(g6
(I0
tp99
g8
tp100
Rp101
(I1
(tg14
I00
S'\x00\x00\x00 3\xf0\x95?'
p102
tp103
bag5
(g6
(I0
tp104
g8
tp105
Rp106
(I1
(tg14
I00
S'\x00\x00\x00\x00\x00\x00\x00\x80'
p107
tp108
bag5
(g6
(I0
tp109
g8
tp110
Rp111
(I1
(tg14
I00
S'\x00\x00\x00 #\x8e\x91>'
p112
tp113
bag5
(g6
(I0
tp114
g8
tp115
Rp116
(I1
(tg14
I00
S'\x00\x00\x00\xa0\xa5b??'
p117
tp118
bag5
(g6
(I0
tp119
g8
tp120
Rp121
(I1
(tg14
I00
S'\x00\x00\x00\xe0\x86\r\xc6?'
p122
tp123
bag5
(g6
(I0
tp124
g8
tp125
Rp126
(I1
(tg14
I00
S'\x00\x00\x00\x00\x00\x00\x00\x80'
p127
tp128
bag5
(g6
(I0
tp129
g8
tp130
Rp131
(I1
(tg14
I00
S'\x00\x00\x00\x00\x00<V='
p132
tp133
bag5
(g6
(I0
tp134
g8
tp135
Rp136
(I1
(tg14
I00
S'\x00\x00\x00\x00\xd43\x0f>'
p137
tp138
bag5
(g6
(I0
tp139
g8
tp140
Rp141
(I1
(tg14
I00
S'\x00\x00\x00@\xffx\x1d@'
p142
tp143
bag5
(g6
(I0
tp144
g8
tp145
Rp146
(I1
(tg14
I00
S'\x00\x00\x00\xc0\xbe02?'
p147
tp148
bag5
(g6
(I0
tp149
g8
tp150
Rp151
(I1
(tg14
I00
S'\x00\x00\x00\xe0a\xef\xb6@'
p152
tp153
bag5
(g6
(I0
tp154
g8
tp155
Rp156
(I1
(tg14
I00
S'\x00\x00\x00\xe0\xe7\xe0&@'
p157
tp158
bag5
(g6
(I0
tp159
g8
tp160
Rp161
(I1
(tg14
I00
S'\x00\x00\x00\x00\x00\x00\x00\x80'
p162
tp163
bag5
(g6
(I0
tp164
g8
tp165
Rp166
(I1
(tg14
I00
S'\x00\x00\x00\x00\x00\x00\x00\x80'
p167
tp168
bag5
(g6
(I0
tp169
g8
tp170
Rp171
(I1
(tg14
I00
S'\x00\x00\x00`EU#>'
p172
tp173
bag5
(g6
(I0
tp174
g8
tp175
Rp176
(I1
(tg14
I00
S'\x00\x00\x00\x00\x00\x00\x00\x80'
p177
tp178
bag5
(g6
(I0
tp179
g8
tp180
Rp181
(I1
(tg14
I00
S'\x00\x00\x00\x80.\xea\x19>'
p182
tp183
bag5
(g6
(I0
tp184
g8
tp185
Rp186
(I1
(tg14
I00
S'\x00\x00\x00\x00\xd8R\xdb='
p187
tp188
bag5
(g6
(I0
tp189
g8
tp190
Rp191
(I1
(tg14
I00
S'\x00\x00\x00`\xf7Z\x01?'
p192
tp193
bag5
(g6
(I0
tp194
g8
tp195
Rp196
(I1
(tg14
I00
S'\x00\x00\x00\x00\x00\x00\x00\x80'
p197
tp198
bag5
(g6
(I0
tp199
g8
tp200
Rp201
(I1
(tg14
I00
S'\x00\x00\x00\x00\x00\x00\x00\x80'
p202
tp203
bag5
(g6
(I0
tp204
g8
tp205
Rp206
(I1
(tg14
I00
S'\x00\x00\x00\xa0K\\\xf7?'
p207
tp208
bag5
(g6
(I0
tp209
g8
tp210
Rp211
(I1
(tg14
I00
S'\x00\x00\x00\x80\x9a51>'
p212
tp213
bag5
(g6
(I0
tp214
g8
tp215
Rp216
(I1
(tg14
I00
S'\x00\x00\x00\x00\x00\xe0[='
p217
tp218
bag5
(g6
(I0
tp219
g8
tp220
Rp221
(I1
(tg14
I00
S'\x00\x00\x00 \x94\xea"?'
p222
tp223
bag5
(g6
(I0
tp224
g8
tp225
Rp226
(I1
(tg14
I00
S'\x00\x00\x00`\xc1{@?'
p227
tp228
bag5
(g6
(I0
tp229
g8
tp230
Rp231
(I1
(tg14
I00
S'\x00\x00\x00@\xd6w\x8e>'
p232
tp233
bag5
(g6
(I0
tp234
g8
tp235
Rp236
(I1
(tg14
I00
S'\x00\x00\x00\xa0\xcc\x04\x89@'
p237
tp238
bag5
(g6
(I0
tp239
g8
tp240
Rp241
(I1
(tg14
I00
S'\x00\x00\x00\xa0\xda\xc7\xb6@'
p242
tp243
bag5
(g6
(I0
tp244
g8
tp245
Rp246
(I1
(tg14
I00
S'\x00\x00\x00@N\xff\x10@'
p247
tp248
bag5
(g6
(I0
tp249
g8
tp250
Rp251
(I1
(tg14
I00
S'\x00\x00\x00\x00\x00PL='
p252
tp253
bag5
(g6
(I0
tp254
g8
tp255
Rp256
(I1
(tg14
I00
S'\x00\x00\x00 \xc6\xce\xe2?'
p257
tp258
bag5
(g6
(I0
tp259
g8
tp260
Rp261
(I1
(tg14
I00
S'\x00\x00\x00\x00xr\xd3='
p262
tp263
bag5
(g6
(I0
tp264
g8
tp265
Rp266
(I1
(tg14
I00
S'\x00\x00\x00\x00\x00\x00\x00\x80'
p267
tp268
bag5
(g6
(I0
tp269
g8
tp270
Rp271
(I1
(tg14
I00
S'\x00\x00\x00\x00\x00\x00\x00\x80'
p272
tp273
bag5
(g6
(I0
tp274
g8
tp275
Rp276
(I1
(tg14
I00
S'\x00\x00\x00\x00\x9a\x9e\xef='
p277
tp278
bag5
(g6
(I0
tp279
g8
tp280
Rp281
(I1
(tg14
I00
S'\x00\x00\x00\xe0[\xfc\xb6@'
p282
tp283
bag5
(g6
(I0
tp284
g8
tp285
Rp286
(I1
(tg14
I00
S'\x00\x00\x00\x00\x00\x00\xec<'
p287
tp288
bag5
(g6
(I0
tp289
g8
tp290
Rp291
(I1
(tg14
I00
S'\x00\x00\x00\x00\x00\x102='
p292
tp293
bag5
(g6
(I0
tp294
g8
tp295
Rp296
(I1
(tg14
I00
S'\x00\x00\x00\x00\x00\x00\x00\x80'
p297
tp298
bag5
(g6
(I0
tp299
g8
tp300
Rp301
(I1
(tg14
I00
S'\x00\x00\x00 \xf8\xa1D>'
p302
tp303
bag5
(g6
(I0
tp304
g8
tp305
Rp306
(I1
(tg14
I00
S'\x00\x00\x00@s\xbf(@'
p307
tp308
bag5
(g6
(I0
tp309
g8
tp310
Rp311
(I1
(tg14
I00
S'\x00\x00\x00\x80\xb9$\xfa?'
p312
tp313
bag5
(g6
(I0
tp314
g8
tp315
Rp316
(I1
(tg14
I00
S'\x00\x00\x00\x00\x00\x00\x00\x80'
p317
tp318
bag5
(g6
(I0
tp319
g8
tp320
Rp321
(I1
(tg14
I00
S'\x00\x00\x00@s\xd8\x7f>'
p322
tp323
bag5
(g6
(I0
tp324
g8
tp325
Rp326
(I1
(tg14
I00
S'\x00\x00\x00\x00\x00\x00\x00\x80'
p327
tp328
bag5
(g6
(I0
tp329
g8
tp330
Rp331
(I1
(tg14
I00
S'\x00\x00\x00\x00\x00\x00\x00\x80'
p332
tp333
bag5
(g6
(I0
tp334
g8
tp335
Rp336
(I1
(tg14
I00
S'\x00\x00\x00\xc0\xe5+\xb5?'
p337
tp338
bag5
(g6
(I0
tp339
g8
tp340
Rp341
(I1
(tg14
I00
S'\x00\x00\x00\x00\x97X\x89@'
p342
tp343
bag5
(g6
(I0
tp344
g8
tp345
Rp346
(I1
(tg14
I00
S'\x00\x00\x00\x00\x00\x00\x00\x80'
p347
tp348
bag5
(g6
(I0
tp349
g8
tp350
Rp351
(I1
(tg14
I00
S'\x00\x00\x00\x00|\x95\xd0='
p352
tp353
bag5
(g6
(I0
tp354
g8
tp355
Rp356
(I1
(tg14
I00
S"\x00\x00\x00\x00\xc5'\xa0?"
p357
tp358
bag5
(g6
(I0
tp359
g8
tp360
Rp361
(I1
(tg14
I00
S'\x00\x00\x00\xe0.\xd6\xed?'
p362
tp363
bag5
(g6
(I0
tp364
g8
tp365
Rp366
(I1
(tg14
I00
S'\x00\x00\x00\xc0\x91\x8dl>'
p367
tp368
bag5
(g6
(I0
tp369
g8
tp370
Rp371
(I1
(tg14
I00
S'\x00\x00\x00\x80\xfc\r\x02>'
p372
tp373
bag5
(g6
(I0
tp374
g8
tp375
Rp376
(I1
(tg14
I00
S'\x00\x00\x00\xc0\xb2\xb6u>'
p377
tp378
bag5
(g6
(I0
tp379
g8
tp380
Rp381
(I1
(tg14
I00
S'\x00\x00\x00\x00\x00\x00\x00\x80'
p382
tp383
bag5
(g6
(I0
tp384
g8
tp385
Rp386
(I1
(tg14
I00
S'\x00\x00\x00\x00\x00\x80(='
p387
tp388
bag5
(g6
(I0
tp389
g8
tp390
Rp391
(I1
(tg14
I00
S'\x00\x00\x00\x80\x1bT%@'
p392
tp393
bag5
(g6
(I0
tp394
g8
tp395
Rp396
(I1
(tg14
I00
S'\x00\x00\x00`\xf1Y\xd5?'
p397
tp398
bag5
(g6
(I0
tp399
g8
tp400
Rp401
(I1
(tg14
I00
S'\x00\x00\x00\x00\xba\x14!@'
p402
tp403
bag5
(g6
(I0
tp404
g8
tp405
Rp406
(I1
(tg14
I00
S'\x00\x00\x00\xe0v&\xaa>'
p407
tp408
bag5
(g6
(I0
tp409
g8
tp410
Rp411
(I1
(tg14
I00
S'\x00\x00\x00\x0075k>'
p412
tp413
bag5
(g6
(I0
tp414
g8
tp415
Rp416
(I1
(tg14
I00
S'\x00\x00\x00@\x98[\x10@'
p417
tp418
bag5
(g6
(I0
tp419
g8
tp420
Rp421
(I1
(tg14
I00
S'\x00\x00\x00`\xdb\xe4\xfb?'
p422
tp423
bag5
(g6
(I0
tp424
g8
tp425
Rp426
(I1
(tg14
I00
S'\x00\x00\x00 \xd5\x04(?'
p427
tp428
bag5
(g6
(I0
tp429
g8
tp430
Rp431
(I1
(tg14
I00
S'\x00\x00\x00\x00\x00\x00\x00\x80'
p432
tp433
bag5
(g6
(I0
tp434
g8
tp435
Rp436
(I1
(tg14
I00
S'\x00\x00\x00\x00`\xa5\xb9='
p437
tp438
bag5
(g6
(I0
tp439
g8
tp440
Rp441
(I1
(tg14
I00
S'\x00\x00\x00\x00\x00\x00\x00\x80'
p442
tp443
bag5
(g6
(I0
tp444
g8
tp445
Rp446
(I1
(tg14
I00
S'\x00\x00\x00\xc0\x98\xe0\x9c>'
p447
tp448
bag5
(g6
(I0
tp449
g8
tp450
Rp451
(I1
(tg14
I00
S'\x00\x00\x00\xc0\xb1\xda\xb6@'
p452
tp453
bag5
(g6
(I0
tp454
g8
tp455
Rp456
(I1
(tg14
I00
S'\x00\x00\x00\xc0\x9d\xd7\xb6@'
p457
tp458
bag5
(g6
(I0
tp459
g8
tp460
Rp461
(I1
(tg14
I00
S'\x00\x00\x00\x00\x00\x00\x00\x80'
p462
tp463
bag5
(g6
(I0
tp464
g8
tp465
Rp466
(I1
(tg14
I00
S'\x00\x00\x00\x00\x00\x00\x00\x80'
p467
tp468
bag5
(g6
(I0
tp469
g8
tp470
Rp471
(I1
(tg14
I00
S'\x00\x00\x00\xe0\x83\xb2\x88>'
p472
tp473
bag5
(g6
(I0
tp474
g8
tp475
Rp476
(I1
(tg14
I00
S'\x00\x00\x00\xc0\xa4\xe4\xb6@'
p477
tp478
bag5
(g6
(I0
tp479
g8
tp480
Rp481
(I1
(tg14
I00
S'\x00\x00\x00 \x84$D@'
p482
tp483
bag5
(g6
(I0
tp484
g8
tp485
Rp486
(I1
(tg14
I00
S'\x00\x00\x00\x00\x00\x00\x00\x80'
p487
tp488
bag5
(g6
(I0
tp489
g8
tp490
Rp491
(I1
(tg14
I00
S'\x00\x00\x00\x005\x00\xf9='
p492
tp493
bag5
(g6
(I0
tp494
g8
tp495
Rp496
(I1
(tg14
I00
S'\x00\x00\x00\xa0\xb6\xf2\xa2?'
p497
tp498
bag5
(g6
(I0
tp499
g8
tp500
Rp501
(I1
(tg14
I00
S'\x00\x00\x00@q\xe3I?'
p502
tp503
bag5
(g6
(I0
tp504
g8
tp505
Rp506
(I1
(tg14
I00
S'\x00\x00\x00\x00\x00\x00\x00\x80'
p507
tp508
bag5
(g6
(I0
tp509
g8
tp510
Rp511
(I1
(tg14
I00
S'\x00\x00\x00@\xb0\xbfQ@'
p512
tp513
bag5
(g6
(I0
tp514
g8
tp515
Rp516
(I1
(tg14
I00
S'\x00\x00\x00 \xff\xe4\xb6@'
p517
tp518
bag5
(g6
(I0
tp519
g8
tp520
Rp521
(I1
(tg14
I00
S'\x00\x00\x00 \xd5\xb8\x90@'
p522
tp523
bag5
(g6
(I0
tp524
g8
tp525
Rp526
(I1
(tg14
I00
S'\x00\x00\x00\x00\x00\x00\x00\x80'
p527
tp528
bag5
(g6
(I0
tp529
g8
tp530
Rp531
(I1
(tg14
I00
S'\x00\x00\x00\x00\x00\x00\x00\x80'
p532
tp533
bag5
(g6
(I0
tp534
g8
tp535
Rp536
(I1
(tg14
I00
S'\x00\x00\x00\x80\x80\xea\xb6@'
p537
tp538
bag5
(g6
(I0
tp539
g8
tp540
Rp541
(I1
(tg14
I00
S'\x00\x00\x00\xc0x)@@'
p542
tp543
bag5
(g6
(I0
tp544
g8
tp545
Rp546
(I1
(tg14
I00
S'\x00\x00\x00\xc0+\x147@'
p547
tp548
bag5
(g6
(I0
tp549
g8
tp550
Rp551
(I1
(tg14
I00
S'\x00\x00\x00\x00\x00\x00\xc8<'
p552
tp553
bag5
(g6
(I0
tp554
g8
tp555
Rp556
(I1
(tg14
I00
S'\x00\x00\x00\x80\xb2"]@'
p557
tp558
bag5
(g6
(I0
tp559
g8
tp560
Rp561
(I1
(tg14
I00
S'\x00\x00\x00\x00\xc0\x13\x9d='
p562
tp563
bag5
(g6
(I0
tp564
g8
tp565
Rp566
(I1
(tg14
I00
S'\x00\x00\x00\x00\x00\x00\x00\x80'
p567
tp568
bag5
(g6
(I0
tp569
g8
tp570
Rp571
(I1
(tg14
I00
S'\x00\x00\x00\xe0\xf7\xc9/@'
p572
tp573
bag5
(g6
(I0
tp574
g8
tp575
Rp576
(I1
(tg14
I00
S'\x00\x00\x00\x00\x00\x00\x00\x80'
p577
tp578
bag5
(g6
(I0
tp579
g8
tp580
Rp581
(I1
(tg14
I00
S'\x00\x00\x00\x00o7\xf7='
p582
tp583
bag5
(g6
(I0
tp584
g8
tp585
Rp586
(I1
(tg14
I00
S'\x00\x00\x00\x00\x00\xccQ='
p587
tp588
bag5
(g6
(I0
tp589
g8
tp590
Rp591
(I1
(tg14
I00
S'\x00\x00\x00\x801@\x81>'
p592
tp593
bag5
(g6
(I0
tp594
g8
tp595
Rp596
(I1
(tg14
I00
S'\x00\x00\x00\x00\xca\x8c\x80>'
p597
tp598
bag5
(g6
(I0
tp599
g8
tp600
Rp601
(I1
(tg14
I00
S'\x00\x00\x00\x00\x00\x00\x00\x80'
p602
tp603
bag5
(g6
(I0
tp604
g8
tp605
Rp606
(I1
(tg14
I00
S'\x00\x00\x00\x00\x80\xe0\x9e='
p607
tp608
bag5
(g6
(I0
tp609
g8
tp610
Rp611
(I1
(tg14
I00
S'\x00\x00\x00\x00\x00\x00\x00\x80'
p612
tp613
bag5
(g6
(I0
tp614
g8
tp615
Rp616
(I1
(tg14
I00
S'\x00\x00\x00\x00\x00\x00\x00\x80'
p617
tp618
bag5
(g6
(I0
tp619
g8
tp620
Rp621
(I1
(tg14
I00
S'\x00\x00\x00\xc0\xea\xa3\xb6@'
p622
tp623
bag5
(g6
(I0
tp624
g8
tp625
Rp626
(I1
(tg14
I00
S'\x00\x00\x00\x00\x00\x00\x00\x80'
p627
tp628
bag5
(g6
(I0
tp629
g8
tp630
Rp631
(I1
(tg14
I00
S'\x00\x00\x00\xc03\xa73@'
p632
tp633
bag5
(g6
(I0
tp634
g8
tp635
Rp636
(I1
(tg14
I00
S'\x00\x00\x00\x00\x00\x00\x00\x80'
p637
tp638
bag5
(g6
(I0
tp639
g8
tp640
Rp641
(I1
(tg14
I00
S'\x00\x00\x00\xc0\r\xe5\xb6@'
p642
tp643
bag5
(g6
(I0
tp644
g8
tp645
Rp646
(I1
(tg14
I00
S'\x00\x00\x00\x00\x00\x00\x00\x80'
p647
tp648
bag5
(g6
(I0
tp649
g8
tp650
Rp651
(I1
(tg14
I00
S'\x00\x00\x00\x80\x85[0@'
p652
tp653
bag5
(g6
(I0
tp654
g8
tp655
Rp656
(I1
(tg14
I00
S'\x00\x00\x00\xa0V\xfd\x1b@'
p657
tp658
bag5
(g6
(I0
tp659
g8
tp660
Rp661
(I1
(tg14
I00
S'\x00\x00\x00\x00\xd6\x8a\xe2='
p662
tp663
bag5
(g6
(I0
tp664
g8
tp665
Rp666
(I1
(tg14
I00
S'\x00\x00\x00\x00\x00\x00\x00\x80'
p667
tp668
bag5
(g6
(I0
tp669
g8
tp670
Rp671
(I1
(tg14
I00
S'\x00\x00\x00@\xa9\xf9\x8d@'
p672
tp673
bag5
(g6
(I0
tp674
g8
tp675
Rp676
(I1
(tg14
I00
S'\x00\x00\x00\x00\x00\x00\xd4<'
p677
tp678
bag5
(g6
(I0
tp679
g8
tp680
Rp681
(I1
(tg14
I00
S'\x00\x00\x00\x00\x00\x00\x00\x80'
p682
tp683
bag5
(g6
(I0
tp684
g8
tp685
Rp686
(I1
(tg14
I00
S'\x00\x00\x00\x00\x00\x00\x00\x80'
p687
tp688
bag5
(g6
(I0
tp689
g8
tp690
Rp691
(I1
(tg14
I00
S'\x00\x00\x00@\xf8|?@'
p692
tp693
bag5
(g6
(I0
tp694
g8
tp695
Rp696
(I1
(tg14
I00
S'\x00\x00\x00\x00\x95x\x7f?'
p697
tp698
bag5
(g6
(I0
tp699
g8
tp700
Rp701
(I1
(tg14
I00
S'\x00\x00\x00@)\xa2\x1d>'
p702
tp703
bag5
(g6
(I0
tp704
g8
tp705
Rp706
(I1
(tg14
I00
S'\x00\x00\x00\x00\x00\x00\x00\x80'
p707
tp708
bag5
(g6
(I0
tp709
g8
tp710
Rp711
(I1
(tg14
I00
S'\x00\x00\x00`\xfcJC@'
p712
tp713
bag5
(g6
(I0
tp714
g8
tp715
Rp716
(I1
(tg14
I00
S'\x00\x00\x00\x00\xe9\xc40@'
p717
tp718
bag5
(g6
(I0
tp719
g8
tp720
Rp721
(I1
(tg14
I00
S'\x00\x00\x00\xa0I\xba\xff>'
p722
tp723
bag5
(g6
(I0
tp724
g8
tp725
Rp726
(I1
(tg14
I00
S'\x00\x00\x00\x00\x00\x00\x00\x80'
p727
tp728
bag5
(g6
(I0
tp729
g8
tp730
Rp731
(I1
(tg14
I00
S'\x00\x00\x00\x00\x00\x00\x00\x80'
p732
tp733
bag5
(g6
(I0
tp734
g8
tp735
Rp736
(I1
(tg14
I00
S'\x00\x00\x00\x00\x00\x00\x00\x80'
p737
tp738
bag5
(g6
(I0
tp739
g8
tp740
Rp741
(I1
(tg14
I00
S'\x00\x00\x00\x00\x00\x00\x00\x80'
p742
tp743
bag5
(g6
(I0
tp744
g8
tp745
Rp746
(I1
(tg14
I00
S'\x00\x00\x00\x80\x92c\x1f@'
p747
tp748
bag5
(g6
(I0
tp749
g8
tp750
Rp751
(I1
(tg14
I00
S'\x00\x00\x00\x80\xda_->'
p752
tp753
bag5
(g6
(I0
tp754
g8
tp755
Rp756
(I1
(tg14
I00
S'\x00\x00\x00\x00\x00\x00\x00\x80'
p757
tp758
bag5
(g6
(I0
tp759
g8
tp760
Rp761
(I1
(tg14
I00
S'\x00\x00\x00\xc0\xf1\xde\x8b@'
p762
tp763
bag5
(g6
(I0
tp764
g8
tp765
Rp766
(I1
(tg14
I00
S'\x00\x00\x00\x00\xe2g\xb6@'
p767
tp768
bag5
(g6
(I0
tp769
g8
tp770
Rp771
(I1
(tg14
I00
S'\x00\x00\x00 \xafVM?'
p772
tp773
bag5
(g6
(I0
tp774
g8
tp775
Rp776
(I1
(tg14
I00
S'\x00\x00\x00 u\xd6\x1a?'
p777
tp778
bag5
(g6
(I0
tp779
g8
tp780
Rp781
(I1
(tg14
I00
S'\x00\x00\x00\x00\x00\x00\x00\x80'
p782
tp783
bag5
(g6
(I0
tp784
g8
tp785
Rp786
(I1
(tg14
I00
S'\x00\x00\x00\x00\xc3u\xb6@'
p787
tp788
bag5
(g6
(I0
tp789
g8
tp790
Rp791
(I1
(tg14
I00
S'\x00\x00\x00\xc0\xc0+D@'
p792
tp793
bag5
(g6
(I0
tp794
g8
tp795
Rp796
(I1
(tg14
I00
S'\x00\x00\x00\x80\xa4o\xb6@'
p797
tp798
bag5
(g6
(I0
tp799
g8
tp800
Rp801
(I1
(tg14
I00
S'\x00\x00\x00\x00\xdfk\xb6@'
p802
tp803
bag5
(g6
(I0
tp804
g8
tp805
Rp806
(I1
(tg14
I00
S'\x00\x00\x00\x80\x88a\xb6@'
p807
tp808
bag5
(g6
(I0
tp809
g8
tp810
Rp811
(I1
(tg14
I00
S'\x00\x00\x00\x00\x00\\S='
p812
tp813
bag5
(g6
(I0
tp814
g8
tp815
Rp816
(I1
(tg14
I00
S'\x00\x00\x00 \x87\xb5(@'
p817
tp818
bag5
(g6
(I0
tp819
g8
tp820
Rp821
(I1
(tg14
I00
S'\x00\x00\x00\x80t\x84Q?'
p822
tp823
bag5
(g6
(I0
tp824
g8
tp825
Rp826
(I1
(tg14
I00
S'\x00\x00\x00\x00\x00\x00\x00\x80'
p827
tp828
bag5
(g6
(I0
tp829
g8
tp830
Rp831
(I1
(tg14
I00
S'\x00\x00\x00\x00\x00\x00\x00\x80'
p832
tp833
bag5
(g6
(I0
tp834
g8
tp835
Rp836
(I1
(tg14
I00
S'\x00\x00\x00`A/1>'
p837
tp838
bag5
(g6
(I0
tp839
g8
tp840
Rp841
(I1
(tg14
I00
S'\x00\x00\x00\xc0z\xd4\x92?'
p842
tp843
bag5
(g6
(I0
tp844
g8
tp845
Rp846
(I1
(tg14
I00
S'\x00\x00\x00\x00\x00\x00\x00\x80'
p847
tp848
bag5
(g6
(I0
tp849
g8
tp850
Rp851
(I1
(tg14
I00
S'\x00\x00\x00\xe0ft\x8a@'
p852
tp853
bag5
(g6
(I0
tp854
g8
tp855
Rp856
(I1
(tg14
I00
S'\x00\x00\x00\x00\x00\x00\x00\x80'
p857
tp858
bag5
(g6
(I0
tp859
g8
tp860
Rp861
(I1
(tg14
I00
S'\x00\x00\x00\x00*]\xb6@'
p862
tp863
bag5
(g6
(I0
tp864
g8
tp865
Rp866
(I1
(tg14
I00
S'\x00\x00\x00\x00\x00\x00\x00\x80'
p867
tp868
bag5
(g6
(I0
tp869
g8
tp870
Rp871
(I1
(tg14
I00
S'\x00\x00\x00\x00\x15\x8e\xb6@'
p872
tp873
bag5
(g6
(I0
tp874
g8
tp875
Rp876
(I1
(tg14
I00
S'\x00\x00\x00\x00\x00\x00\x00\x80'
p877
tp878
bag5
(g6
(I0
tp879
g8
tp880
Rp881
(I1
(tg14
I00
S'\x00\x00\x00\x00\x00\x00\x00\x80'
p882
tp883
bag5
(g6
(I0
tp884
g8
tp885
Rp886
(I1
(tg14
I00
S'\x00\x00\x00\x00\x00\x00\x00\x80'
p887
tp888
bag5
(g6
(I0
tp889
g8
tp890
Rp891
(I1
(tg14
I00
S"\x00\x00\x00`'\xb6\x17@"
p892
tp893
bag5
(g6
(I0
tp894
g8
tp895
Rp896
(I1
(tg14
I00
S'\x00\x00\x00\x00\x00\x00\x00\x80'
p897
tp898
bag5
(g6
(I0
tp899
g8
tp900
Rp901
(I1
(tg14
I00
S'\x00\x00\x00\x00\x00\x00\x00\x80'
p902
tp903
bag5
(g6
(I0
tp904
g8
tp905
Rp906
(I1
(tg14
I00
S'\x00\x00\x00@\xc1\xd9\xa8>'
p907
tp908
bag5
(g6
(I0
tp909
g8
tp910
Rp911
(I1
(tg14
I00
S'\x00\x00\x00\x00\x00\xe4U='
p912
tp913
bag5
(g6
(I0
tp914
g8
tp915
Rp916
(I1
(tg14
I00
S'\x00\x00\x00\x00\x00\x00\x00\x80'
p917
tp918
bag5
(g6
(I0
tp919
g8
tp920
Rp921
(I1
(tg14
I00
S'\x00\x00\x00\x00\x00\x00\x00\x80'
p922
tp923
bag5
(g6
(I0
tp924
g8
tp925
Rp926
(I1
(tg14
I00
S'\x00\x00\x00\x00\xc0\xdc*@'
p927
tp928
bag5
(g6
(I0
tp929
g8
tp930
Rp931
(I1
(tg14
I00
S'\x00\x00\x00@\xa3\xc3#@'
p932
tp933
bag5
(g6
(I0
tp934
g8
tp935
Rp936
(I1
(tg14
I00
S'\x00\x00\x00 \xbdQ\xa5>'
p937
tp938
bag5
(g6
(I0
tp939
g8
tp940
Rp941
(I1
(tg14
I00
S'\x00\x00\x00@L\xa8B@'
p942
tp943
bag5
(g6
(I0
tp944
g8
tp945
Rp946
(I1
(tg14
I00
S'\x00\x00\x00\x00\x00\x00\x00\x80'
p947
tp948
bag5
(g6
(I0
tp949
g8
tp950
Rp951
(I1
(tg14
I00
S'\x00\x00\x00`\x9a\x1c\xa2>'
p952
tp953
bag5
(g6
(I0
tp954
g8
tp955
Rp956
(I1
(tg14
I00
S'\x00\x00\x00\x00\x00\x00\x00\x80'
p957
tp958
bag5
(g6
(I0
tp959
g8
tp960
Rp961
(I1
(tg14
I00
S'\x00\x00\x00\x00\x00\x00\x00\x80'
p962
tp963
bag5
(g6
(I0
tp964
g8
tp965
Rp966
(I1
(tg14
I00
S'\x00\x00\x00\x00\x00\x00\x00\x80'
p967
tp968
bag5
(g6
(I0
tp969
g8
tp970
Rp971
(I1
(tg14
I00
S'\x00\x00\x00@\xb0o\xed?'
p972
tp973
bag5
(g6
(I0
tp974
g8
tp975
Rp976
(I1
(tg14
I00
S'\x00\x00\x00\xc0MP\xd7?'
p977
tp978
bag5
(g6
(I0
tp979
g8
tp980
Rp981
(I1
(tg14
I00
S'\x00\x00\x00\xe0\xe4m0@'
p982
tp983
bag5
(g6
(I0
tp984
g8
tp985
Rp986
(I1
(tg14
I00
S'\x00\x00\x00`\xa3b#@'
p987
tp988
bag5
(g6
(I0
tp989
g8
tp990
Rp991
(I1
(tg14
I00
S'\x00\x00\x00\x00\x00\x00\x00\x80'
p992
tp993
bag5
(g6
(I0
tp994
g8
tp995
Rp996
(I1
(tg14
I00
S'\x00\x00\x00 \x81\x9f\xa1>'
p997
tp998
bag5
(g6
(I0
tp999
g8
tp1000
Rp1001
(I1
(tg14
I00
S'\x00\x00\x00\x00\x00\x00\x00\x80'
p1002
tp1003
bag5
(g6
(I0
tp1004
g8
tp1005
Rp1006
(I1
(tg14
I00
S'\x00\x00\x00\x00\x00\x00\x00\x80'
p1007
tp1008
bag5
(g6
(I0
tp1009
g8
tp1010
Rp1011
(I1
(tg14
I00
S'\x00\x00\x00@\x7f\xe0\xb8?'
p1012
tp1013
bag5
(g6
(I0
tp1014
g8
tp1015
Rp1016
(I1
(tg14
I00
S'\x00\x00\x00\xc0U\xaf\x99?'
p1017
tp1018
bag5
(g6
(I0
tp1019
g8
tp1020
Rp1021
(I1
(tg14
I00
S'\x00\x00\x00`+m\xf8?'
p1022
tp1023
bag5
(g6
(I0
tp1024
g8
tp1025
Rp1026
(I1
(tg14
I00
S'\x00\x00\x00\x80`\xa5\xb6@'
p1027
tp1028
bag5
(g6
(I0
tp1029
g8
tp1030
Rp1031
(I1
(tg14
I00
S'\x00\x00\x00\x00\x10\x0f\xc8='
p1032
tp1033
bag5
(g6
(I0
tp1034
g8
tp1035
Rp1036
(I1
(tg14
I00
S'\x00\x00\x00\x00\x00\x00\x00\x80'
p1037
tp1038
baaa(lp1039
S'iteration'
p1040
a(lp1041
I0
aI1
aI2
aI3
aI4
aI5
aI6
aI7
aI8
aI9
aI10
aI11
aI12
aI13
aI14
aI15
aI16
aI17
aI18
aI19
aI20
aI21
aI22
aI23
aI24
aI25
aI26
aI27
aI28
aI29
aI30
aI31
aI32
aI33
aI34
aI35
aI36
aI37
aI38
aI39
aI40
aI41
aI42
aI43
aI44
aI45
aI46
aI47
aI48
aI49
aI50
aI51
aI52
aI53
aI54
aI55
aI56
aI57
aI58
aI59
aI60
aI61
aI62
aI63
aI64
aI65
aI66
aI67
aI68
aI69
aI70
aI71
aI72
aI73
aI74
aI75
aI76
aI77
aI78
aI79
aI80
aI81
aI82
aI83
aI84
aI85
aI86
aI87
aI88
aI89
aI90
aI91
aI92
aI93
aI94
aI95
aI96
aI97
aI98
aI99
aI100
aI101
aI102
aI103
aI104
aI105
aI106
aI107
aI108
aI109
aI110
aI111
aI112
aI113
aI114
aI115
aI116
aI117
aI118
aI119
aI120
aI121
aI122
aI123
aI124
aI125
aI126
aI127
aI128
aI129
aI130
aI131
aI132
aI133
aI134
aI135
aI136
aI137
aI138
aI139
aI140
aI141
aI142
aI143
aI144
aI145
aI146
aI147
aI148
aI149
aI150
aI151
aI152
aI153
aI154
aI155
aI156
aI157
aI158
aI159
aI160
aI161
aI162
aI163
aI164
aI165
aI166
aI167
aI168
aI169
aI170
aI171
aI172
aI173
aI174
aI175
aI176
aI177
aI178
aI179
aI180
aI181
aI182
aI183
aI184
aI185
aI186
aI187
aI188
aI189
aI190
aI191
aI192
aI193
aI194
aI195
aI196
aI197
aI198
aI199
aI200
aI201
aI202
aI203
aI204
aaa(lp1042
S'accuracy'
p1043
a(lp1044
g5
(g6
(I0
tp1045
g8
tp1046
Rp1047
(I1
(tg11
(S'f4'
p1048
I0
I1
tp1049
Rp1050
(I3
S'<'
p1051
NNNI-1
I-1
I0
tp1052
bI00
S'\x00\x00\x00\x00'
p1053
tp1054
bag5
(g6
(I0
tp1055
g8
tp1056
Rp1057
(I1
(tg1050
I00
S'\x00\x00\x00\x00'
p1058
tp1059
bag5
(g6
(I0
tp1060
g8
tp1061
Rp1062
(I1
(tg1050
I00
S'\x00\x00\x00\x00'
p1063
tp1064
bag5
(g6
(I0
tp1065
g8
tp1066
Rp1067
(I1
(tg1050
I00
S'\x00\x00\x00\x00'
p1068
tp1069
bag5
(g6
(I0
tp1070
g8
tp1071
Rp1072
(I1
(tg1050
I00
S'\x00\x00\x00\x00'
p1073
tp1074
bag5
(g6
(I0
tp1075
g8
tp1076
Rp1077
(I1
(tg1050
I00
S'\x00\x00\x80?'
p1078
tp1079
bag5
(g6
(I0
tp1080
g8
tp1081
Rp1082
(I1
(tg1050
I00
S'\x00\x00\x80?'
p1083
tp1084
bag5
(g6
(I0
tp1085
g8
tp1086
Rp1087
(I1
(tg1050
I00
S'\x00\x00\x00\x00'
p1088
tp1089
bag5
(g6
(I0
tp1090
g8
tp1091
Rp1092
(I1
(tg1050
I00
S'\x00\x00\x80?'
p1093
tp1094
bag5
(g6
(I0
tp1095
g8
tp1096
Rp1097
(I1
(tg1050
I00
S'\x00\x00\x80?'
p1098
tp1099
bag5
(g6
(I0
tp1100
g8
tp1101
Rp1102
(I1
(tg1050
I00
S'\x00\x00\x80?'
p1103
tp1104
bag5
(g6
(I0
tp1105
g8
tp1106
Rp1107
(I1
(tg1050
I00
S'\x00\x00\x00\x00'
p1108
tp1109
bag5
(g6
(I0
tp1110
g8
tp1111
Rp1112
(I1
(tg1050
I00
S'\x00\x00\x00\x00'
p1113
tp1114
bag5
(g6
(I0
tp1115
g8
tp1116
Rp1117
(I1
(tg1050
I00
S'\x00\x00\x80?'
p1118
tp1119
bag5
(g6
(I0
tp1120
g8
tp1121
Rp1122
(I1
(tg1050
I00
S'\x00\x00\x80?'
p1123
tp1124
bag5
(g6
(I0
tp1125
g8
tp1126
Rp1127
(I1
(tg1050
I00
S'\x00\x00\x00\x00'
p1128
tp1129
bag5
(g6
(I0
tp1130
g8
tp1131
Rp1132
(I1
(tg1050
I00
S'\x00\x00\x00\x00'
p1133
tp1134
bag5
(g6
(I0
tp1135
g8
tp1136
Rp1137
(I1
(tg1050
I00
S'\x00\x00\x80?'
p1138
tp1139
bag5
(g6
(I0
tp1140
g8
tp1141
Rp1142
(I1
(tg1050
I00
S'\x00\x00\x80?'
p1143
tp1144
bag5
(g6
(I0
tp1145
g8
tp1146
Rp1147
(I1
(tg1050
I00
S'\x00\x00\x80?'
p1148
tp1149
bag5
(g6
(I0
tp1150
g8
tp1151
Rp1152
(I1
(tg1050
I00
S'\x00\x00\x80?'
p1153
tp1154
bag5
(g6
(I0
tp1155
g8
tp1156
Rp1157
(I1
(tg1050
I00
S'\x00\x00\x80?'
p1158
tp1159
bag5
(g6
(I0
tp1160
g8
tp1161
Rp1162
(I1
(tg1050
I00
S'\x00\x00\x80?'
p1163
tp1164
bag5
(g6
(I0
tp1165
g8
tp1166
Rp1167
(I1
(tg1050
I00
S'\x00\x00\x80?'
p1168
tp1169
bag5
(g6
(I0
tp1170
g8
tp1171
Rp1172
(I1
(tg1050
I00
S'\x00\x00\x80?'
p1173
tp1174
bag5
(g6
(I0
tp1175
g8
tp1176
Rp1177
(I1
(tg1050
I00
S'\x00\x00\x00\x00'
p1178
tp1179
bag5
(g6
(I0
tp1180
g8
tp1181
Rp1182
(I1
(tg1050
I00
S'\x00\x00\x80?'
p1183
tp1184
bag5
(g6
(I0
tp1185
g8
tp1186
Rp1187
(I1
(tg1050
I00
S'\x00\x00\x00\x00'
p1188
tp1189
bag5
(g6
(I0
tp1190
g8
tp1191
Rp1192
(I1
(tg1050
I00
S'\x00\x00\x00\x00'
p1193
tp1194
bag5
(g6
(I0
tp1195
g8
tp1196
Rp1197
(I1
(tg1050
I00
S'\x00\x00\x80?'
p1198
tp1199
bag5
(g6
(I0
tp1200
g8
tp1201
Rp1202
(I1
(tg1050
I00
S'\x00\x00\x80?'
p1203
tp1204
bag5
(g6
(I0
tp1205
g8
tp1206
Rp1207
(I1
(tg1050
I00
S'\x00\x00\x80?'
p1208
tp1209
bag5
(g6
(I0
tp1210
g8
tp1211
Rp1212
(I1
(tg1050
I00
S'\x00\x00\x80?'
p1213
tp1214
bag5
(g6
(I0
tp1215
g8
tp1216
Rp1217
(I1
(tg1050
I00
S'\x00\x00\x80?'
p1218
tp1219
bag5
(g6
(I0
tp1220
g8
tp1221
Rp1222
(I1
(tg1050
I00
S'\x00\x00\x80?'
p1223
tp1224
bag5
(g6
(I0
tp1225
g8
tp1226
Rp1227
(I1
(tg1050
I00
S'\x00\x00\x80?'
p1228
tp1229
bag5
(g6
(I0
tp1230
g8
tp1231
Rp1232
(I1
(tg1050
I00
S'\x00\x00\x80?'
p1233
tp1234
bag5
(g6
(I0
tp1235
g8
tp1236
Rp1237
(I1
(tg1050
I00
S'\x00\x00\x80?'
p1238
tp1239
bag5
(g6
(I0
tp1240
g8
tp1241
Rp1242
(I1
(tg1050
I00
S'\x00\x00\x00\x00'
p1243
tp1244
bag5
(g6
(I0
tp1245
g8
tp1246
Rp1247
(I1
(tg1050
I00
S'\x00\x00\x80?'
p1248
tp1249
bag5
(g6
(I0
tp1250
g8
tp1251
Rp1252
(I1
(tg1050
I00
S'\x00\x00\x80?'
p1253
tp1254
bag5
(g6
(I0
tp1255
g8
tp1256
Rp1257
(I1
(tg1050
I00
S'\x00\x00\x80?'
p1258
tp1259
bag5
(g6
(I0
tp1260
g8
tp1261
Rp1262
(I1
(tg1050
I00
S'\x00\x00\x80?'
p1263
tp1264
bag5
(g6
(I0
tp1265
g8
tp1266
Rp1267
(I1
(tg1050
I00
S'\x00\x00\x80?'
p1268
tp1269
bag5
(g6
(I0
tp1270
g8
tp1271
Rp1272
(I1
(tg1050
I00
S'\x00\x00\x00\x00'
p1273
tp1274
bag5
(g6
(I0
tp1275
g8
tp1276
Rp1277
(I1
(tg1050
I00
S'\x00\x00\x00\x00'
p1278
tp1279
bag5
(g6
(I0
tp1280
g8
tp1281
Rp1282
(I1
(tg1050
I00
S'\x00\x00\x00\x00'
p1283
tp1284
bag5
(g6
(I0
tp1285
g8
tp1286
Rp1287
(I1
(tg1050
I00
S'\x00\x00\x80?'
p1288
tp1289
bag5
(g6
(I0
tp1290
g8
tp1291
Rp1292
(I1
(tg1050
I00
S'\x00\x00\x80?'
p1293
tp1294
bag5
(g6
(I0
tp1295
g8
tp1296
Rp1297
(I1
(tg1050
I00
S'\x00\x00\x80?'
p1298
tp1299
bag5
(g6
(I0
tp1300
g8
tp1301
Rp1302
(I1
(tg1050
I00
S'\x00\x00\x80?'
p1303
tp1304
bag5
(g6
(I0
tp1305
g8
tp1306
Rp1307
(I1
(tg1050
I00
S'\x00\x00\x80?'
p1308
tp1309
bag5
(g6
(I0
tp1310
g8
tp1311
Rp1312
(I1
(tg1050
I00
S'\x00\x00\x80?'
p1313
tp1314
bag5
(g6
(I0
tp1315
g8
tp1316
Rp1317
(I1
(tg1050
I00
S'\x00\x00\x00\x00'
p1318
tp1319
bag5
(g6
(I0
tp1320
g8
tp1321
Rp1322
(I1
(tg1050
I00
S'\x00\x00\x80?'
p1323
tp1324
bag5
(g6
(I0
tp1325
g8
tp1326
Rp1327
(I1
(tg1050
I00
S'\x00\x00\x80?'
p1328
tp1329
bag5
(g6
(I0
tp1330
g8
tp1331
Rp1332
(I1
(tg1050
I00
S'\x00\x00\x80?'
p1333
tp1334
bag5
(g6
(I0
tp1335
g8
tp1336
Rp1337
(I1
(tg1050
I00
S'\x00\x00\x80?'
p1338
tp1339
bag5
(g6
(I0
tp1340
g8
tp1341
Rp1342
(I1
(tg1050
I00
S'\x00\x00\x00\x00'
p1343
tp1344
bag5
(g6
(I0
tp1345
g8
tp1346
Rp1347
(I1
(tg1050
I00
S'\x00\x00\x00\x00'
p1348
tp1349
bag5
(g6
(I0
tp1350
g8
tp1351
Rp1352
(I1
(tg1050
I00
S'\x00\x00\x80?'
p1353
tp1354
bag5
(g6
(I0
tp1355
g8
tp1356
Rp1357
(I1
(tg1050
I00
S'\x00\x00\x80?'
p1358
tp1359
bag5
(g6
(I0
tp1360
g8
tp1361
Rp1362
(I1
(tg1050
I00
S'\x00\x00\x80?'
p1363
tp1364
bag5
(g6
(I0
tp1365
g8
tp1366
Rp1367
(I1
(tg1050
I00
S'\x00\x00\x80?'
p1368
tp1369
bag5
(g6
(I0
tp1370
g8
tp1371
Rp1372
(I1
(tg1050
I00
S'\x00\x00\x80?'
p1373
tp1374
bag5
(g6
(I0
tp1375
g8
tp1376
Rp1377
(I1
(tg1050
I00
S'\x00\x00\x00\x00'
p1378
tp1379
bag5
(g6
(I0
tp1380
g8
tp1381
Rp1382
(I1
(tg1050
I00
S'\x00\x00\x80?'
p1383
tp1384
bag5
(g6
(I0
tp1385
g8
tp1386
Rp1387
(I1
(tg1050
I00
S'\x00\x00\x80?'
p1388
tp1389
bag5
(g6
(I0
tp1390
g8
tp1391
Rp1392
(I1
(tg1050
I00
S'\x00\x00\x80?'
p1393
tp1394
bag5
(g6
(I0
tp1395
g8
tp1396
Rp1397
(I1
(tg1050
I00
S'\x00\x00\x00\x00'
p1398
tp1399
bag5
(g6
(I0
tp1400
g8
tp1401
Rp1402
(I1
(tg1050
I00
S'\x00\x00\x80?'
p1403
tp1404
bag5
(g6
(I0
tp1405
g8
tp1406
Rp1407
(I1
(tg1050
I00
S'\x00\x00\x80?'
p1408
tp1409
bag5
(g6
(I0
tp1410
g8
tp1411
Rp1412
(I1
(tg1050
I00
S'\x00\x00\x80?'
p1413
tp1414
bag5
(g6
(I0
tp1415
g8
tp1416
Rp1417
(I1
(tg1050
I00
S'\x00\x00\x80?'
p1418
tp1419
bag5
(g6
(I0
tp1420
g8
tp1421
Rp1422
(I1
(tg1050
I00
S'\x00\x00\x80?'
p1423
tp1424
bag5
(g6
(I0
tp1425
g8
tp1426
Rp1427
(I1
(tg1050
I00
S'\x00\x00\x00\x00'
p1428
tp1429
bag5
(g6
(I0
tp1430
g8
tp1431
Rp1432
(I1
(tg1050
I00
S'\x00\x00\x80?'
p1433
tp1434
bag5
(g6
(I0
tp1435
g8
tp1436
Rp1437
(I1
(tg1050
I00
S'\x00\x00\x00\x00'
p1438
tp1439
bag5
(g6
(I0
tp1440
g8
tp1441
Rp1442
(I1
(tg1050
I00
S'\x00\x00\x80?'
p1443
tp1444
bag5
(g6
(I0
tp1445
g8
tp1446
Rp1447
(I1
(tg1050
I00
S'\x00\x00\x80?'
p1448
tp1449
bag5
(g6
(I0
tp1450
g8
tp1451
Rp1452
(I1
(tg1050
I00
S'\x00\x00\x00\x00'
p1453
tp1454
bag5
(g6
(I0
tp1455
g8
tp1456
Rp1457
(I1
(tg1050
I00
S'\x00\x00\x00\x00'
p1458
tp1459
bag5
(g6
(I0
tp1460
g8
tp1461
Rp1462
(I1
(tg1050
I00
S'\x00\x00\x80?'
p1463
tp1464
bag5
(g6
(I0
tp1465
g8
tp1466
Rp1467
(I1
(tg1050
I00
S'\x00\x00\x80?'
p1468
tp1469
bag5
(g6
(I0
tp1470
g8
tp1471
Rp1472
(I1
(tg1050
I00
S'\x00\x00\x80?'
p1473
tp1474
bag5
(g6
(I0
tp1475
g8
tp1476
Rp1477
(I1
(tg1050
I00
S'\x00\x00\x80?'
p1478
tp1479
bag5
(g6
(I0
tp1480
g8
tp1481
Rp1482
(I1
(tg1050
I00
S'\x00\x00\x80?'
p1483
tp1484
bag5
(g6
(I0
tp1485
g8
tp1486
Rp1487
(I1
(tg1050
I00
S'\x00\x00\x00\x00'
p1488
tp1489
bag5
(g6
(I0
tp1490
g8
tp1491
Rp1492
(I1
(tg1050
I00
S'\x00\x00\x00\x00'
p1493
tp1494
bag5
(g6
(I0
tp1495
g8
tp1496
Rp1497
(I1
(tg1050
I00
S'\x00\x00\x80?'
p1498
tp1499
bag5
(g6
(I0
tp1500
g8
tp1501
Rp1502
(I1
(tg1050
I00
S'\x00\x00\x80?'
p1503
tp1504
bag5
(g6
(I0
tp1505
g8
tp1506
Rp1507
(I1
(tg1050
I00
S'\x00\x00\x80?'
p1508
tp1509
bag5
(g6
(I0
tp1510
g8
tp1511
Rp1512
(I1
(tg1050
I00
S'\x00\x00\x00\x00'
p1513
tp1514
bag5
(g6
(I0
tp1515
g8
tp1516
Rp1517
(I1
(tg1050
I00
S'\x00\x00\x00\x00'
p1518
tp1519
bag5
(g6
(I0
tp1520
g8
tp1521
Rp1522
(I1
(tg1050
I00
S'\x00\x00\x80?'
p1523
tp1524
bag5
(g6
(I0
tp1525
g8
tp1526
Rp1527
(I1
(tg1050
I00
S'\x00\x00\x80?'
p1528
tp1529
bag5
(g6
(I0
tp1530
g8
tp1531
Rp1532
(I1
(tg1050
I00
S'\x00\x00\x80?'
p1533
tp1534
bag5
(g6
(I0
tp1535
g8
tp1536
Rp1537
(I1
(tg1050
I00
S'\x00\x00\x80?'
p1538
tp1539
bag5
(g6
(I0
tp1540
g8
tp1541
Rp1542
(I1
(tg1050
I00
S'\x00\x00\x80?'
p1543
tp1544
bag5
(g6
(I0
tp1545
g8
tp1546
Rp1547
(I1
(tg1050
I00
S'\x00\x00\x00\x00'
p1548
tp1549
bag5
(g6
(I0
tp1550
g8
tp1551
Rp1552
(I1
(tg1050
I00
S'\x00\x00\x00\x00'
p1553
tp1554
bag5
(g6
(I0
tp1555
g8
tp1556
Rp1557
(I1
(tg1050
I00
S'\x00\x00\x00\x00'
p1558
tp1559
bag5
(g6
(I0
tp1560
g8
tp1561
Rp1562
(I1
(tg1050
I00
S'\x00\x00\x80?'
p1563
tp1564
bag5
(g6
(I0
tp1565
g8
tp1566
Rp1567
(I1
(tg1050
I00
S'\x00\x00\x80?'
p1568
tp1569
bag5
(g6
(I0
tp1570
g8
tp1571
Rp1572
(I1
(tg1050
I00
S'\x00\x00\x00\x00'
p1573
tp1574
bag5
(g6
(I0
tp1575
g8
tp1576
Rp1577
(I1
(tg1050
I00
S'\x00\x00\x00\x00'
p1578
tp1579
bag5
(g6
(I0
tp1580
g8
tp1581
Rp1582
(I1
(tg1050
I00
S'\x00\x00\x00\x00'
p1583
tp1584
bag5
(g6
(I0
tp1585
g8
tp1586
Rp1587
(I1
(tg1050
I00
S'\x00\x00\x80?'
p1588
tp1589
bag5
(g6
(I0
tp1590
g8
tp1591
Rp1592
(I1
(tg1050
I00
S'\x00\x00\x00\x00'
p1593
tp1594
bag5
(g6
(I0
tp1595
g8
tp1596
Rp1597
(I1
(tg1050
I00
S'\x00\x00\x80?'
p1598
tp1599
bag5
(g6
(I0
tp1600
g8
tp1601
Rp1602
(I1
(tg1050
I00
S'\x00\x00\x80?'
p1603
tp1604
bag5
(g6
(I0
tp1605
g8
tp1606
Rp1607
(I1
(tg1050
I00
S'\x00\x00\x00\x00'
p1608
tp1609
bag5
(g6
(I0
tp1610
g8
tp1611
Rp1612
(I1
(tg1050
I00
S'\x00\x00\x80?'
p1613
tp1614
bag5
(g6
(I0
tp1615
g8
tp1616
Rp1617
(I1
(tg1050
I00
S'\x00\x00\x80?'
p1618
tp1619
bag5
(g6
(I0
tp1620
g8
tp1621
Rp1622
(I1
(tg1050
I00
S'\x00\x00\x80?'
p1623
tp1624
bag5
(g6
(I0
tp1625
g8
tp1626
Rp1627
(I1
(tg1050
I00
S'\x00\x00\x80?'
p1628
tp1629
bag5
(g6
(I0
tp1630
g8
tp1631
Rp1632
(I1
(tg1050
I00
S'\x00\x00\x80?'
p1633
tp1634
bag5
(g6
(I0
tp1635
g8
tp1636
Rp1637
(I1
(tg1050
I00
S'\x00\x00\x80?'
p1638
tp1639
bag5
(g6
(I0
tp1640
g8
tp1641
Rp1642
(I1
(tg1050
I00
S'\x00\x00\x80?'
p1643
tp1644
bag5
(g6
(I0
tp1645
g8
tp1646
Rp1647
(I1
(tg1050
I00
S'\x00\x00\x80?'
p1648
tp1649
bag5
(g6
(I0
tp1650
g8
tp1651
Rp1652
(I1
(tg1050
I00
S'\x00\x00\x80?'
p1653
tp1654
bag5
(g6
(I0
tp1655
g8
tp1656
Rp1657
(I1
(tg1050
I00
S'\x00\x00\x00\x00'
p1658
tp1659
bag5
(g6
(I0
tp1660
g8
tp1661
Rp1662
(I1
(tg1050
I00
S'\x00\x00\x80?'
p1663
tp1664
bag5
(g6
(I0
tp1665
g8
tp1666
Rp1667
(I1
(tg1050
I00
S'\x00\x00\x00\x00'
p1668
tp1669
bag5
(g6
(I0
tp1670
g8
tp1671
Rp1672
(I1
(tg1050
I00
S'\x00\x00\x80?'
p1673
tp1674
bag5
(g6
(I0
tp1675
g8
tp1676
Rp1677
(I1
(tg1050
I00
S'\x00\x00\x00\x00'
p1678
tp1679
bag5
(g6
(I0
tp1680
g8
tp1681
Rp1682
(I1
(tg1050
I00
S'\x00\x00\x80?'
p1683
tp1684
bag5
(g6
(I0
tp1685
g8
tp1686
Rp1687
(I1
(tg1050
I00
S'\x00\x00\x00\x00'
p1688
tp1689
bag5
(g6
(I0
tp1690
g8
tp1691
Rp1692
(I1
(tg1050
I00
S'\x00\x00\x00\x00'
p1693
tp1694
bag5
(g6
(I0
tp1695
g8
tp1696
Rp1697
(I1
(tg1050
I00
S'\x00\x00\x80?'
p1698
tp1699
bag5
(g6
(I0
tp1700
g8
tp1701
Rp1702
(I1
(tg1050
I00
S'\x00\x00\x80?'
p1703
tp1704
bag5
(g6
(I0
tp1705
g8
tp1706
Rp1707
(I1
(tg1050
I00
S'\x00\x00\x00\x00'
p1708
tp1709
bag5
(g6
(I0
tp1710
g8
tp1711
Rp1712
(I1
(tg1050
I00
S'\x00\x00\x80?'
p1713
tp1714
bag5
(g6
(I0
tp1715
g8
tp1716
Rp1717
(I1
(tg1050
I00
S'\x00\x00\x80?'
p1718
tp1719
bag5
(g6
(I0
tp1720
g8
tp1721
Rp1722
(I1
(tg1050
I00
S'\x00\x00\x80?'
p1723
tp1724
bag5
(g6
(I0
tp1725
g8
tp1726
Rp1727
(I1
(tg1050
I00
S'\x00\x00\x00\x00'
p1728
tp1729
bag5
(g6
(I0
tp1730
g8
tp1731
Rp1732
(I1
(tg1050
I00
S'\x00\x00\x80?'
p1733
tp1734
bag5
(g6
(I0
tp1735
g8
tp1736
Rp1737
(I1
(tg1050
I00
S'\x00\x00\x80?'
p1738
tp1739
bag5
(g6
(I0
tp1740
g8
tp1741
Rp1742
(I1
(tg1050
I00
S'\x00\x00\x80?'
p1743
tp1744
bag5
(g6
(I0
tp1745
g8
tp1746
Rp1747
(I1
(tg1050
I00
S'\x00\x00\x00\x00'
p1748
tp1749
bag5
(g6
(I0
tp1750
g8
tp1751
Rp1752
(I1
(tg1050
I00
S'\x00\x00\x00\x00'
p1753
tp1754
bag5
(g6
(I0
tp1755
g8
tp1756
Rp1757
(I1
(tg1050
I00
S'\x00\x00\x80?'
p1758
tp1759
bag5
(g6
(I0
tp1760
g8
tp1761
Rp1762
(I1
(tg1050
I00
S'\x00\x00\x80?'
p1763
tp1764
bag5
(g6
(I0
tp1765
g8
tp1766
Rp1767
(I1
(tg1050
I00
S'\x00\x00\x80?'
p1768
tp1769
bag5
(g6
(I0
tp1770
g8
tp1771
Rp1772
(I1
(tg1050
I00
S'\x00\x00\x80?'
p1773
tp1774
bag5
(g6
(I0
tp1775
g8
tp1776
Rp1777
(I1
(tg1050
I00
S'\x00\x00\x80?'
p1778
tp1779
bag5
(g6
(I0
tp1780
g8
tp1781
Rp1782
(I1
(tg1050
I00
S'\x00\x00\x00\x00'
p1783
tp1784
bag5
(g6
(I0
tp1785
g8
tp1786
Rp1787
(I1
(tg1050
I00
S'\x00\x00\x80?'
p1788
tp1789
bag5
(g6
(I0
tp1790
g8
tp1791
Rp1792
(I1
(tg1050
I00
S'\x00\x00\x80?'
p1793
tp1794
bag5
(g6
(I0
tp1795
g8
tp1796
Rp1797
(I1
(tg1050
I00
S'\x00\x00\x00\x00'
p1798
tp1799
bag5
(g6
(I0
tp1800
g8
tp1801
Rp1802
(I1
(tg1050
I00
S'\x00\x00\x00\x00'
p1803
tp1804
bag5
(g6
(I0
tp1805
g8
tp1806
Rp1807
(I1
(tg1050
I00
S'\x00\x00\x80?'
p1808
tp1809
bag5
(g6
(I0
tp1810
g8
tp1811
Rp1812
(I1
(tg1050
I00
S'\x00\x00\x80?'
p1813
tp1814
bag5
(g6
(I0
tp1815
g8
tp1816
Rp1817
(I1
(tg1050
I00
S'\x00\x00\x80?'
p1818
tp1819
bag5
(g6
(I0
tp1820
g8
tp1821
Rp1822
(I1
(tg1050
I00
S'\x00\x00\x00\x00'
p1823
tp1824
bag5
(g6
(I0
tp1825
g8
tp1826
Rp1827
(I1
(tg1050
I00
S'\x00\x00\x00\x00'
p1828
tp1829
bag5
(g6
(I0
tp1830
g8
tp1831
Rp1832
(I1
(tg1050
I00
S'\x00\x00\x00\x00'
p1833
tp1834
bag5
(g6
(I0
tp1835
g8
tp1836
Rp1837
(I1
(tg1050
I00
S'\x00\x00\x00\x00'
p1838
tp1839
bag5
(g6
(I0
tp1840
g8
tp1841
Rp1842
(I1
(tg1050
I00
S'\x00\x00\x00\x00'
p1843
tp1844
bag5
(g6
(I0
tp1845
g8
tp1846
Rp1847
(I1
(tg1050
I00
S'\x00\x00\x80?'
p1848
tp1849
bag5
(g6
(I0
tp1850
g8
tp1851
Rp1852
(I1
(tg1050
I00
S'\x00\x00\x00\x00'
p1853
tp1854
bag5
(g6
(I0
tp1855
g8
tp1856
Rp1857
(I1
(tg1050
I00
S'\x00\x00\x80?'
p1858
tp1859
bag5
(g6
(I0
tp1860
g8
tp1861
Rp1862
(I1
(tg1050
I00
S'\x00\x00\x80?'
p1863
tp1864
bag5
(g6
(I0
tp1865
g8
tp1866
Rp1867
(I1
(tg1050
I00
S'\x00\x00\x80?'
p1868
tp1869
bag5
(g6
(I0
tp1870
g8
tp1871
Rp1872
(I1
(tg1050
I00
S'\x00\x00\x80?'
p1873
tp1874
bag5
(g6
(I0
tp1875
g8
tp1876
Rp1877
(I1
(tg1050
I00
S'\x00\x00\x80?'
p1878
tp1879
bag5
(g6
(I0
tp1880
g8
tp1881
Rp1882
(I1
(tg1050
I00
S'\x00\x00\x80?'
p1883
tp1884
bag5
(g6
(I0
tp1885
g8
tp1886
Rp1887
(I1
(tg1050
I00
S'\x00\x00\x00\x00'
p1888
tp1889
bag5
(g6
(I0
tp1890
g8
tp1891
Rp1892
(I1
(tg1050
I00
S'\x00\x00\x80?'
p1893
tp1894
bag5
(g6
(I0
tp1895
g8
tp1896
Rp1897
(I1
(tg1050
I00
S'\x00\x00\x00\x00'
p1898
tp1899
bag5
(g6
(I0
tp1900
g8
tp1901
Rp1902
(I1
(tg1050
I00
S'\x00\x00\x80?'
p1903
tp1904
bag5
(g6
(I0
tp1905
g8
tp1906
Rp1907
(I1
(tg1050
I00
S'\x00\x00\x00\x00'
p1908
tp1909
bag5
(g6
(I0
tp1910
g8
tp1911
Rp1912
(I1
(tg1050
I00
S'\x00\x00\x80?'
p1913
tp1914
bag5
(g6
(I0
tp1915
g8
tp1916
Rp1917
(I1
(tg1050
I00
S'\x00\x00\x80?'
p1918
tp1919
bag5
(g6
(I0
tp1920
g8
tp1921
Rp1922
(I1
(tg1050
I00
S'\x00\x00\x80?'
p1923
tp1924
bag5
(g6
(I0
tp1925
g8
tp1926
Rp1927
(I1
(tg1050
I00
S'\x00\x00\x00\x00'
p1928
tp1929
bag5
(g6
(I0
tp1930
g8
tp1931
Rp1932
(I1
(tg1050
I00
S'\x00\x00\x80?'
p1933
tp1934
bag5
(g6
(I0
tp1935
g8
tp1936
Rp1937
(I1
(tg1050
I00
S'\x00\x00\x80?'
p1938
tp1939
bag5
(g6
(I0
tp1940
g8
tp1941
Rp1942
(I1
(tg1050
I00
S'\x00\x00\x80?'
p1943
tp1944
bag5
(g6
(I0
tp1945
g8
tp1946
Rp1947
(I1
(tg1050
I00
S'\x00\x00\x80?'
p1948
tp1949
bag5
(g6
(I0
tp1950
g8
tp1951
Rp1952
(I1
(tg1050
I00
S'\x00\x00\x80?'
p1953
tp1954
bag5
(g6
(I0
tp1955
g8
tp1956
Rp1957
(I1
(tg1050
I00
S'\x00\x00\x80?'
p1958
tp1959
bag5
(g6
(I0
tp1960
g8
tp1961
Rp1962
(I1
(tg1050
I00
S'\x00\x00\x00\x00'
p1963
tp1964
bag5
(g6
(I0
tp1965
g8
tp1966
Rp1967
(I1
(tg1050
I00
S'\x00\x00\x00\x00'
p1968
tp1969
bag5
(g6
(I0
tp1970
g8
tp1971
Rp1972
(I1
(tg1050
I00
S'\x00\x00\x80?'
p1973
tp1974
bag5
(g6
(I0
tp1975
g8
tp1976
Rp1977
(I1
(tg1050
I00
S'\x00\x00\x00\x00'
p1978
tp1979
bag5
(g6
(I0
tp1980
g8
tp1981
Rp1982
(I1
(tg1050
I00
S'\x00\x00\x80?'
p1983
tp1984
bag5
(g6
(I0
tp1985
g8
tp1986
Rp1987
(I1
(tg1050
I00
S'\x00\x00\x80?'
p1988
tp1989
bag5
(g6
(I0
tp1990
g8
tp1991
Rp1992
(I1
(tg1050
I00
S'\x00\x00\x80?'
p1993
tp1994
bag5
(g6
(I0
tp1995
g8
tp1996
Rp1997
(I1
(tg1050
I00
S'\x00\x00\x80?'
p1998
tp1999
bag5
(g6
(I0
tp2000
g8
tp2001
Rp2002
(I1
(tg1050
I00
S'\x00\x00\x80?'
p2003
tp2004
bag5
(g6
(I0
tp2005
g8
tp2006
Rp2007
(I1
(tg1050
I00
S'\x00\x00\x00\x00'
p2008
tp2009
bag5
(g6
(I0
tp2010
g8
tp2011
Rp2012
(I1
(tg1050
I00
S'\x00\x00\x80?'
p2013
tp2014
bag5
(g6
(I0
tp2015
g8
tp2016
Rp2017
(I1
(tg1050
I00
S'\x00\x00\x00\x00'
p2018
tp2019
bag5
(g6
(I0
tp2020
g8
tp2021
Rp2022
(I1
(tg1050
I00
S'\x00\x00\x00\x00'
p2023
tp2024
bag5
(g6
(I0
tp2025
g8
tp2026
Rp2027
(I1
(tg1050
I00
S'\x00\x00\x80?'
p2028
tp2029
bag5
(g6
(I0
tp2030
g8
tp2031
Rp2032
(I1
(tg1050
I00
S'\x00\x00\x80?'
p2033
tp2034
bag5
(g6
(I0
tp2035
g8
tp2036
Rp2037
(I1
(tg1050
I00
S'\x00\x00\x80?'
p2038
tp2039
bag5
(g6
(I0
tp2040
g8
tp2041
Rp2042
(I1
(tg1050
I00
S'\x00\x00\x80?'
p2043
tp2044
bag5
(g6
(I0
tp2045
g8
tp2046
Rp2047
(I1
(tg1050
I00
S'\x00\x00\x80?'
p2048
tp2049
bag5
(g6
(I0
tp2050
g8
tp2051
Rp2052
(I1
(tg1050
I00
S'\x00\x00\x80?'
p2053
tp2054
bag5
(g6
(I0
tp2055
g8
tp2056
Rp2057
(I1
(tg1050
I00
S'\x00\x00\x00\x00'
p2058
tp2059
bag5
(g6
(I0
tp2060
g8
tp2061
Rp2062
(I1
(tg1050
I00
S'\x00\x00\x00\x00'
p2063
tp2064
bag5
(g6
(I0
tp2065
g8
tp2066
Rp2067
(I1
(tg1050
I00
S'\x00\x00\x80?'
p2068
tp2069
bag5
(g6
(I0
tp2070
g8
tp2071
Rp2072
(I1
(tg1050
I00
S'\x00\x00\x80?'
p2073
tp2074
baaatp2075
Rp2076
.